(dp0
S'aa'
p1
(lp2
I6
aI7
asS'ac'
p3
(lp4
I11
aI13
asS'ab'
p5
(lp6
I14
aI9
asS'ba'
p7
(lp8
I17
aI10
asS'bb'
p9
(lp10
I16
aI3
asS'bc'
p11
(lp12
I15
aI5
asS'cc'
p13
(lp14
I17
aI2
asS'cb'
p15
(lp16
I14
aI6
asS'ca'
p17
(lp18
I19
aI9
as.