(dp0
S'aa'
p1
(lp2
(lp3
I14
aI4
aa(lp4
I13
aI2
aa(lp5
I13
aI2
aa(lp6
I13
aI4
aa(lp7
I14
aI3
aasS'ac'
p8
(lp9
(lp10
I11
aI7
aa(lp11
I12
aI15
aa(lp12
I15
aI9
aa(lp13
I8
aI9
aa(lp14
I13
aI8
aasS'ab'
p15
(lp16
(lp17
I14
aI8
aa(lp18
I11
aI11
aa(lp19
I14
aI9
aa(lp20
I10
aI11
aa(lp21
I10
aI13
aasS'ba'
p22
(lp23
(lp24
I12
aI6
aa(lp25
I19
aI6
aa(lp26
I16
aI6
aa(lp27
I16
aI7
aa(lp28
I17
aI8
aasS'bb'
p29
(lp30
(lp31
I17
aI1
aa(lp32
I20
aI2
aa(lp33
I11
aI7
aa(lp34
I15
aI2
aa(lp35
I16
aI4
aasS'bc'
p36
(lp37
(lp38
I15
aI7
aa(lp39
I14
aI8
aa(lp40
I17
aI3
aa(lp41
I15
aI8
aa(lp42
I18
aI6
aasS'cc'
p43
(lp44
(lp45
I18
aI1
aa(lp46
I14
aI3
aa(lp47
I15
aI3
aa(lp48
I20
aI3
aa(lp49
I14
aI4
aasS'cb'
p50
(lp51
(lp52
I16
aI9
aa(lp53
I17
aI12
aa(lp54
I18
aI7
aa(lp55
I15
aI6
aa(lp56
I10
aI13
aasS'ca'
p57
(lp58
(lp59
I15
aI6
aa(lp60
I17
aI4
aa(lp61
I15
aI8
aa(lp62
I15
aI7
aa(lp63
I14
aI7
aas.