(dp0
S'gefhcjdbia'
p1
(lp2
(lp3
I14
aI13
aI7
aI7
aI5
aI5
aI6
aI6
aI10
aI6
aa(lp4
I11
aI11
aI7
aI9
aI4
aI4
aI4
aI7
aI4
aI1
aa(lp5
I15
aI10
aI6
aI9
aI5
aI5
aI5
aI5
aI5
aI4
aa(lp6
I19
aI11
aI5
aI7
aI3
aI3
aI2
aI6
aI9
aI4
aa(lp7
I14
aI14
aI5
aI5
aI3
aI4
aI4
aI8
aI9
aI4
aasS'dbgiacjfhe'
p8
(lp9
(lp10
I17
aI9
aI5
aI4
aI4
aI4
aI6
aI3
aI5
aI4
aa(lp11
I16
aI7
aI4
aI9
aI3
aI5
aI6
aI7
aI7
aI5
aa(lp12
I13
aI12
aI5
aI9
aI1
aI5
aI9
aI5
aI5
aI5
aa(lp13
I14
aI11
aI6
aI9
aI4
aI3
aI8
aI6
aI7
aI3
aa(lp14
I15
aI13
aI6
aI8
aI2
aI3
aI6
aI5
aI5
aI6
aasS'ieabfdgjch'
p15
(lp16
(lp17
I15
aI11
aI3
aI3
aI5
aI3
aI5
aI6
aI4
aI8
aa(lp18
I14
aI13
aI3
aI8
aI2
aI4
aI6
aI7
aI4
aI6
aa(lp19
I20
aI9
aI3
aI7
aI4
aI6
aI4
aI7
aI3
aI4
aa(lp20
I16
aI9
aI2
aI9
aI4
aI5
aI4
aI5
aI3
aI3
aa(lp21
I17
aI11
aI3
aI8
aI8
aI9
aI3
aI6
aI1
aI4
aasS'bidahejgcf'
p22
(lp23
(lp24
I16
aI11
aI2
aI1
aI7
aI5
aI7
aI2
aI6
aI6
aa(lp25
I16
aI8
aI8
aI6
aI4
aI4
aI5
aI7
aI2
aI7
aa(lp26
I10
aI12
aI7
aI4
aI7
aI2
aI7
aI3
aI6
aI6
aa(lp27
I13
aI12
aI7
aI3
aI6
aI4
aI2
aI5
aI6
aI5
aa(lp28
I12
aI12
aI5
aI3
aI4
aI9
aI4
aI2
aI3
aI4
aasS'biacjdefgh'
p29
(lp30
(lp31
I18
aI14
aI6
aI1
aI6
aI4
aI4
aI4
aI4
aI3
aa(lp32
I12
aI10
aI4
aI3
aI6
aI6
aI7
aI4
aI6
aI5
aa(lp33
I13
aI11
aI7
aI6
aI8
aI3
aI7
aI5
aI6
aI5
aa(lp34
I18
aI14
aI6
aI4
aI9
aI6
aI7
aI4
aI2
aI6
aa(lp35
I17
aI9
aI1
aI4
aI4
aI5
aI4
aI4
aI3
aI4
aasS'hdaicjbfge'
p36
(lp37
(lp38
I13
aI10
aI4
aI3
aI6
aI7
aI8
aI4
aI6
aI2
aa(lp39
I16
aI10
aI4
aI9
aI5
aI5
aI9
aI5
aI8
aI4
aa(lp40
I13
aI12
aI3
aI5
aI3
aI5
aI8
aI4
aI6
aI1
aa(lp41
I18
aI7
aI2
aI6
aI4
aI6
aI6
aI4
aI3
aI4
aa(lp42
I11
aI14
aI5
aI10
aI2
aI6
aI11
aI1
aI4
aI6
aasS'fbjcgehaid'
p43
(lp44
(lp45
I15
aI12
aI5
aI3
aI6
aI5
aI2
aI2
aI8
aI4
aa(lp46
I20
aI8
aI6
aI4
aI6
aI3
aI4
aI2
aI6
aI4
aa(lp47
I19
aI8
aI6
aI3
aI7
aI1
aI4
aI2
aI7
aI2
aa(lp48
I18
aI11
aI9
aI3
aI8
aI6
aI7
aI2
aI4
aI6
aa(lp49
I20
aI5
aI8
aI5
aI6
aI6
aI8
aI2
aI2
aI2
aasS'agfehjbicd'
p50
(lp51
(lp52
I14
aI10
aI9
aI8
aI7
aI7
aI6
aI6
aI4
aI5
aa(lp53
I14
aI11
aI6
aI6
aI9
aI6
aI7
aI5
aI2
aI5
aa(lp54
I13
aI15
aI7
aI4
aI7
aI9
aI6
aI5
aI5
aI5
aa(lp55
I12
aI16
aI7
aI1
aI7
aI9
aI6
aI4
aI1
aI5
aa(lp56
I13
aI12
aI10
aI5
aI9
aI9
aI7
aI5
aI5
aI3
aasS'biedjgfach'
p57
(lp58
(lp59
I17
aI16
aI11
aI4
aI6
aI8
aI3
aI3
aI2
aI3
aa(lp60
I17
aI10
aI7
aI5
aI3
aI5
aI5
aI4
aI5
aI2
aa(lp61
I16
aI10
aI7
aI6
aI9
aI8
aI8
aI5
aI3
aI2
aa(lp62
I15
aI13
aI4
aI5
aI7
aI4
aI5
aI1
aI4
aI7
aa(lp63
I15
aI12
aI6
aI4
aI9
aI3
aI5
aI6
aI4
aI6
aasS'ahdicgjfbe'
p64
(lp65
(lp66
I14
aI5
aI12
aI9
aI4
aI3
aI7
aI2
aI8
aI6
aa(lp67
I14
aI4
aI9
aI8
aI7
aI4
aI6
aI6
aI10
aI2
aa(lp68
I8
aI7
aI12
aI4
aI5
aI7
aI6
aI2
aI6
aI6
aa(lp69
I13
aI5
aI9
aI7
aI7
aI1
aI5
aI3
aI8
aI4
aa(lp70
I10
aI7
aI5
aI10
aI4
aI6
aI7
aI7
aI6
aI5
aasS'badecfihjg'
p71
(lp72
(lp73
I14
aI4
aI9
aI7
aI2
aI4
aI6
aI5
aI5
aI1
aa(lp74
I13
aI7
aI6
aI10
aI3
aI3
aI8
aI9
aI5
aI6
aa(lp75
I13
aI7
aI3
aI11
aI4
aI4
aI2
aI4
aI2
aI10
aa(lp76
I15
aI8
aI7
aI8
aI2
aI6
aI4
aI6
aI8
aI8
aa(lp77
I14
aI5
aI4
aI10
aI4
aI3
aI3
aI7
aI7
aI5
aasS'djhecibgfa'
p78
(lp79
(lp80
I9
aI9
aI10
aI5
aI2
aI7
aI8
aI6
aI3
aI4
aa(lp81
I15
aI10
aI9
aI5
aI4
aI6
aI8
aI2
aI3
aI1
aa(lp82
I12
aI11
aI9
aI6
aI3
aI3
aI4
aI5
aI2
aI3
aa(lp83
I13
aI8
aI7
aI9
aI6
aI6
aI9
aI7
aI6
aI3
aa(lp84
I15
aI10
aI8
aI3
aI6
aI7
aI7
aI3
aI5
aI2
aasS'fjiadebhcg'
p85
(lp86
(lp87
I10
aI15
aI11
aI6
aI7
aI5
aI10
aI4
aI3
aI6
aa(lp88
I18
aI8
aI6
aI7
aI1
aI5
aI10
aI6
aI3
aI8
aa(lp89
I15
aI4
aI10
aI6
aI3
aI4
aI9
aI5
aI6
aI2
aa(lp90
I17
aI7
aI5
aI1
aI6
aI9
aI10
aI2
aI3
aI5
aa(lp91
I19
aI9
aI4
aI4
aI6
aI5
aI6
aI3
aI5
aI4
aasS'abcijghfde'
p92
(lp93
(lp94
I10
aI14
aI7
aI9
aI7
aI6
aI2
aI3
aI5
aI7
aa(lp95
I14
aI14
aI8
aI4
aI6
aI9
aI5
aI1
aI3
aI2
aa(lp96
I11
aI6
aI7
aI6
aI7
aI8
aI6
aI3
aI2
aI7
aa(lp97
I10
aI9
aI8
aI8
aI2
aI7
aI3
aI1
aI6
aI4
aa(lp98
I13
aI13
aI4
aI9
aI3
aI9
aI5
aI2
aI4
aI1
aasS'ifcjegadhb'
p99
(lp100
(lp101
I15
aI11
aI5
aI6
aI6
aI1
aI3
aI5
aI3
aI10
aa(lp102
I16
aI11
aI5
aI6
aI5
aI9
aI3
aI3
aI6
aI7
aa(lp103
I17
aI8
aI5
aI5
aI6
aI6
aI3
aI4
aI5
aI7
aa(lp104
I19
aI7
aI5
aI7
aI7
aI7
aI4
aI4
aI5
aI9
aa(lp105
I17
aI5
aI5
aI2
aI2
aI4
aI4
aI5
aI3
aI3
aasS'dbiafjhcge'
p106
(lp107
(lp108
I16
aI6
aI7
aI2
aI8
aI6
aI8
aI5
aI3
aI7
aa(lp109
I10
aI10
aI10
aI4
aI7
aI7
aI3
aI2
aI4
aI5
aa(lp110
I18
aI10
aI9
aI3
aI7
aI5
aI8
aI4
aI6
aI3
aa(lp111
I18
aI10
aI7
aI4
aI7
aI6
aI4
aI4
aI6
aI5
aa(lp112
I14
aI8
aI10
aI4
aI6
aI7
aI1
aI2
aI4
aI7
aasS'bafjiedhgc'
p113
(lp114
(lp115
I18
aI7
aI9
aI7
aI7
aI4
aI4
aI3
aI5
aI3
aa(lp116
I17
aI3
aI8
aI8
aI7
aI6
aI5
aI4
aI6
aI3
aa(lp117
I15
aI9
aI7
aI8
aI4
aI5
aI5
aI5
aI8
aI2
aa(lp118
I18
aI1
aI9
aI1
aI5
aI8
aI5
aI5
aI5
aI5
aa(lp119
I19
aI6
aI11
aI7
aI9
aI6
aI3
aI4
aI6
aI3
aasS'afhdigebjc'
p120
(lp121
(lp122
I12
aI16
aI1
aI5
aI5
aI9
aI2
aI8
aI4
aI2
aa(lp123
I12
aI11
aI8
aI3
aI6
aI6
aI7
aI10
aI3
aI3
aa(lp124
I13
aI13
aI1
aI7
aI5
aI5
aI5
aI6
aI7
aI5
aa(lp125
I11
aI8
aI9
aI5
aI5
aI6
aI5
aI5
aI4
aI4
aa(lp126
I11
aI8
aI7
aI2
aI8
aI8
aI1
aI8
aI6
aI5
aasS'heiacdfjgb'
p127
(lp128
(lp129
I11
aI12
aI9
aI2
aI3
aI5
aI3
aI4
aI10
aI7
aa(lp130
I20
aI11
aI9
aI3
aI3
aI4
aI4
aI6
aI9
aI8
aa(lp131
I17
aI11
aI7
aI1
aI5
aI2
aI5
aI6
aI6
aI7
aa(lp132
I16
aI11
aI9
aI4
aI6
aI6
aI4
aI6
aI6
aI6
aa(lp133
I13
aI14
aI8
aI3
aI5
aI4
aI4
aI3
aI5
aI7
aasS'fbgedhjcai'
p134
(lp135
(lp136
I16
aI7
aI8
aI6
aI2
aI7
aI3
aI6
aI3
aI4
aa(lp137
I19
aI8
aI9
aI8
aI4
aI7
aI4
aI5
aI3
aI6
aa(lp138
I19
aI10
aI12
aI4
aI4
aI9
aI7
aI2
aI4
aI7
aa(lp139
I19
aI10
aI8
aI7
aI4
aI9
aI4
aI2
aI2
aI2
aa(lp140
I18
aI8
aI5
aI3
aI6
aI6
aI6
aI2
aI3
aI6
aasS'jahegfcbid'
p141
(lp142
(lp143
I15
aI6
aI9
aI11
aI4
aI6
aI4
aI6
aI6
aI2
aa(lp144
I18
aI9
aI6
aI9
aI6
aI6
aI4
aI3
aI4
aI2
aa(lp145
I18
aI9
aI4
aI8
aI6
aI8
aI1
aI12
aI6
aI2
aa(lp146
I14
aI10
aI4
aI9
aI9
aI10
aI5
aI7
aI3
aI3
aa(lp147
I17
aI11
aI2
aI8
aI9
aI8
aI3
aI3
aI1
aI2
aasS'bghfecdaji'
p148
(lp149
(lp150
I16
aI12
aI11
aI6
aI7
aI3
aI4
aI3
aI7
aI2
aa(lp151
I17
aI10
aI11
aI4
aI4
aI1
aI5
aI3
aI1
aI7
aa(lp152
I18
aI8
aI6
aI6
aI9
aI3
aI1
aI2
aI3
aI6
aa(lp153
I15
aI10
aI8
aI7
aI4
aI3
aI6
aI5
aI4
aI2
aa(lp154
I16
aI12
aI12
aI1
aI8
aI4
aI5
aI2
aI9
aI7
aasS'ihcdgeafjb'
p155
(lp156
(lp157
I16
aI5
aI4
aI5
aI6
aI7
aI4
aI4
aI7
aI9
aa(lp158
I19
aI6
aI6
aI6
aI5
aI3
aI1
aI6
aI8
aI11
aa(lp159
I15
aI5
aI1
aI7
aI5
aI8
aI4
aI4
aI6
aI6
aa(lp160
I16
aI7
aI7
aI2
aI4
aI5
aI3
aI5
aI5
aI9
aa(lp161
I17
aI6
aI5
aI6
aI6
aI5
aI2
aI0
aI8
aI3
aasS'cigdhjbfea'
p162
(lp163
(lp164
I12
aI5
aI11
aI4
aI5
aI4
aI5
aI3
aI7
aI3
aa(lp165
I13
aI13
aI6
aI4
aI7
aI4
aI5
aI5
aI5
aI3
aa(lp166
I17
aI13
aI9
aI2
aI6
aI6
aI10
aI3
aI4
aI3
aa(lp167
I18
aI8
aI10
aI2
aI9
aI5
aI6
aI5
aI6
aI3
aa(lp168
I14
aI9
aI7
aI4
aI2
aI5
aI8
aI3
aI2
aI4
aasS'diceagbfjh'
p169
(lp170
(lp171
I10
aI8
aI8
aI1
aI5
aI6
aI9
aI7
aI4
aI5
aa(lp172
I17
aI13
aI6
aI3
aI2
aI5
aI6
aI6
aI2
aI5
aa(lp173
I17
aI8
aI9
aI4
aI3
aI9
aI9
aI6
aI2
aI2
aa(lp174
I17
aI11
aI5
aI3
aI4
aI6
aI9
aI4
aI3
aI3
aa(lp175
I11
aI12
aI8
aI3
aI6
aI5
aI10
aI5
aI5
aI5
aasS'aieghdfbjc'
p176
(lp177
(lp178
I13
aI11
aI4
aI8
aI7
aI3
aI6
aI7
aI6
aI4
aa(lp179
I16
aI9
aI7
aI6
aI10
aI3
aI8
aI6
aI9
aI2
aa(lp180
I14
aI10
aI2
aI3
aI6
aI4
aI5
aI3
aI5
aI5
aa(lp181
I11
aI5
aI4
aI7
aI7
aI3
aI9
aI9
aI8
aI3
aa(lp182
I14
aI9
aI7
aI7
aI5
aI3
aI6
aI8
aI6
aI4
aasS'gfahjdbcie'
p183
(lp184
(lp185
I14
aI14
aI7
aI9
aI2
aI1
aI5
aI4
aI3
aI3
aa(lp186
I14
aI11
aI5
aI8
aI4
aI4
aI5
aI5
aI2
aI5
aa(lp187
I13
aI12
aI3
aI9
aI3
aI4
aI5
aI5
aI4
aI8
aa(lp188
I12
aI13
aI5
aI2
aI8
aI2
aI5
aI5
aI6
aI6
aa(lp189
I18
aI15
aI5
aI4
aI8
aI2
aI7
aI2
aI9
aI6
aasS'febcgdahij'
p190
(lp191
(lp192
I13
aI8
aI8
aI3
aI8
aI4
aI3
aI6
aI4
aI1
aa(lp193
I15
aI10
aI9
aI6
aI4
aI3
aI4
aI5
aI5
aI6
aa(lp194
I17
aI8
aI8
aI4
aI8
aI2
aI6
aI4
aI7
aI3
aa(lp195
I17
aI2
aI5
aI4
aI5
aI3
aI4
aI5
aI8
aI8
aa(lp196
I22
aI7
aI5
aI1
aI2
aI4
aI5
aI7
aI5
aI3
aasS'heaibgfjcd'
p197
(lp198
(lp199
I15
aI11
aI3
aI5
aI10
aI9
aI3
aI7
aI3
aI4
aa(lp200
I8
aI12
aI2
aI4
aI10
aI3
aI4
aI3
aI5
aI8
aa(lp201
I13
aI8
aI1
aI8
aI8
aI8
aI6
aI4
aI4
aI5
aa(lp202
I13
aI9
aI5
aI5
aI12
aI10
aI6
aI5
aI5
aI3
aa(lp203
I17
aI14
aI2
aI7
aI1
aI6
aI3
aI6
aI2
aI3
aasS'gacdiejbhf'
p204
(lp205
(lp206
I17
aI4
aI5
aI5
aI8
aI7
aI7
aI7
aI3
aI4
aa(lp207
I19
aI11
aI4
aI2
aI4
aI6
aI6
aI9
aI6
aI1
aa(lp208
I12
aI9
aI5
aI5
aI8
aI6
aI8
aI6
aI4
aI7
aa(lp209
I14
aI4
aI9
aI4
aI5
aI5
aI6
aI4
aI6
aI2
aa(lp210
I12
aI6
aI9
aI4
aI5
aI3
aI7
aI5
aI5
aI6
aasS'ecahdjigbf'
p211
(lp212
(lp213
I14
aI4
aI1
aI7
aI5
aI4
aI6
aI4
aI7
aI5
aa(lp214
I23
aI4
aI2
aI7
aI4
aI4
aI8
aI6
aI4
aI5
aa(lp215
I17
aI4
aI2
aI8
aI3
aI7
aI7
aI10
aI9
aI4
aa(lp216
I17
aI7
aI2
aI9
aI6
aI6
aI3
aI5
aI7
aI7
aa(lp217
I14
aI5
aI6
aI8
aI6
aI8
aI6
aI5
aI5
aI5
aasS'fgdehcjbai'
p218
(lp219
(lp220
I19
aI10
aI4
aI2
aI4
aI5
aI8
aI4
aI5
aI8
aa(lp221
I15
aI10
aI4
aI8
aI9
aI3
aI3
aI7
aI2
aI6
aa(lp222
I18
aI7
aI3
aI7
aI5
aI3
aI3
aI7
aI2
aI6
aa(lp223
I19
aI5
aI7
aI8
aI4
aI3
aI5
aI7
aI4
aI5
aa(lp224
I15
aI6
aI7
aI9
aI2
aI3
aI7
aI6
aI2
aI7
aasS'gfjbichdae'
p225
(lp226
(lp227
I16
aI10
aI6
aI4
aI7
aI5
aI8
aI2
aI4
aI7
aa(lp228
I18
aI11
aI2
aI8
aI7
aI5
aI5
aI5
aI1
aI7
aa(lp229
I14
aI7
aI5
aI9
aI7
aI5
aI8
aI5
aI2
aI3
aa(lp230
I15
aI13
aI1
aI7
aI5
aI4
aI7
aI2
aI2
aI6
aa(lp231
I14
aI11
aI7
aI8
aI8
aI5
aI8
aI5
aI2
aI1
aasS'bcejdaifhg'
p232
(lp233
(lp234
I18
aI8
aI12
aI4
aI4
aI2
aI4
aI6
aI7
aI8
aa(lp235
I13
aI9
aI9
aI7
aI4
aI4
aI7
aI4
aI3
aI7
aa(lp236
I15
aI9
aI10
aI6
aI1
aI4
aI3
aI4
aI6
aI7
aa(lp237
I15
aI7
aI11
aI3
aI3
aI4
aI7
aI5
aI7
aI7
aa(lp238
I16
aI8
aI8
aI5
aI5
aI7
aI7
aI4
aI5
aI3
aasS'jgaidhfbec'
p239
(lp240
(lp241
I14
aI12
aI7
aI6
aI1
aI7
aI5
aI7
aI4
aI1
aa(lp242
I19
aI12
aI4
aI7
aI3
aI7
aI9
aI2
aI3
aI2
aa(lp243
I18
aI11
aI4
aI7
aI2
aI6
aI5
aI9
aI3
aI3
aa(lp244
I19
aI10
aI6
aI7
aI4
aI7
aI1
aI6
aI7
aI2
aa(lp245
I19
aI10
aI5
aI6
aI4
aI5
aI4
aI7
aI7
aI1
aasS'ahgdbejcif'
p246
(lp247
(lp248
I13
aI8
aI11
aI5
aI6
aI5
aI9
aI3
aI8
aI4
aa(lp249
I14
aI8
aI8
aI3
aI9
aI6
aI8
aI5
aI3
aI3
aa(lp250
I15
aI8
aI11
aI5
aI9
aI2
aI1
aI3
aI8
aI1
aa(lp251
I14
aI11
aI11
aI5
aI5
aI5
aI4
aI1
aI5
aI6
aa(lp252
I13
aI3
aI10
aI6
aI4
aI7
aI5
aI2
aI5
aI8
aasS'ecibdafjhg'
p253
(lp254
(lp255
I17
aI3
aI8
aI4
aI6
aI4
aI1
aI6
aI4
aI2
aa(lp256
I19
aI3
aI3
aI6
aI6
aI2
aI4
aI5
aI5
aI3
aa(lp257
I19
aI6
aI7
aI6
aI7
aI5
aI4
aI7
aI5
aI5
aa(lp258
I21
aI2
aI7
aI8
aI2
aI3
aI6
aI6
aI7
aI5
aa(lp259
I16
aI6
aI7
aI9
aI6
aI3
aI1
aI2
aI5
aI2
aasS'cgdfhbjeai'
p260
(lp261
(lp262
I15
aI11
aI2
aI7
aI9
aI3
aI3
aI7
aI2
aI6
aa(lp263
I13
aI10
aI5
aI2
aI5
aI9
aI5
aI7
aI3
aI8
aa(lp264
I18
aI9
aI2
aI7
aI6
aI3
aI5
aI1
aI4
aI6
aa(lp265
I15
aI10
aI4
aI4
aI2
aI8
aI6
aI4
aI2
aI5
aa(lp266
I18
aI5
aI6
aI6
aI9
aI7
aI5
aI4
aI2
aI6
aasS'ebacjgdifh'
p267
(lp268
(lp269
I18
aI8
aI5
aI1
aI4
aI5
aI3
aI8
aI5
aI2
aa(lp270
I19
aI8
aI3
aI2
aI5
aI8
aI1
aI7
aI4
aI4
aa(lp271
I16
aI8
aI3
aI5
aI9
aI7
aI3
aI4
aI4
aI5
aa(lp272
I18
aI8
aI4
aI4
aI5
aI3
aI7
aI8
aI5
aI6
aa(lp273
I16
aI10
aI3
aI4
aI8
aI7
aI4
aI4
aI2
aI10
aasS'hgjidbfcae'
p274
(lp275
(lp276
I17
aI13
aI6
aI4
aI3
aI9
aI3
aI4
aI5
aI3
aa(lp277
I14
aI12
aI8
aI3
aI2
aI7
aI7
aI4
aI6
aI4
aa(lp278
I13
aI14
aI9
aI8
aI4
aI6
aI7
aI2
aI5
aI3
aa(lp279
I13
aI10
aI8
aI5
aI5
aI7
aI3
aI6
aI4
aI5
aa(lp280
I16
aI14
aI7
aI7
aI2
aI9
aI5
aI6
aI3
aI3
aasS'hediagcfbj'
p281
(lp282
(lp283
I11
aI9
aI5
aI6
aI4
aI8
aI8
aI2
aI12
aI5
aa(lp284
I11
aI12
aI6
aI6
aI4
aI6
aI2
aI7
aI11
aI1
aa(lp285
I14
aI13
aI5
aI7
aI2
aI6
aI3
aI2
aI8
aI5
aa(lp286
I19
aI9
aI7
aI4
aI2
aI5
aI2
aI3
aI7
aI5
aa(lp287
I16
aI11
aI9
aI1
aI3
aI7
aI4
aI4
aI7
aI3
aasS'egicjfhabd'
p288
(lp289
(lp290
I17
aI7
aI7
aI4
aI7
aI4
aI5
aI3
aI9
aI1
aa(lp291
I16
aI7
aI10
aI3
aI5
aI6
aI4
aI1
aI4
aI4
aa(lp292
I18
aI10
aI9
aI3
aI5
aI2
aI4
aI4
aI7
aI4
aa(lp293
I12
aI11
aI6
aI3
aI8
aI2
aI8
aI2
aI5
aI3
aa(lp294
I14
aI8
aI5
aI5
aI3
aI5
aI7
aI1
aI7
aI1
aasS'hiedgjfacb'
p295
(lp296
(lp297
I13
aI10
aI5
aI5
aI3
aI6
aI5
aI5
aI1
aI9
aa(lp298
I18
aI8
aI11
aI7
aI3
aI7
aI7
aI5
aI1
aI7
aa(lp299
I13
aI11
aI9
aI3
aI6
aI4
aI4
aI2
aI4
aI7
aa(lp300
I13
aI13
aI10
aI7
aI8
aI4
aI7
aI3
aI3
aI7
aa(lp301
I16
aI12
aI7
aI6
aI6
aI6
aI6
aI5
aI2
aI10
aasS'ihfcjgadbe'
p302
(lp303
(lp304
I19
aI3
aI7
aI1
aI5
aI5
aI5
aI4
aI4
aI3
aa(lp305
I16
aI6
aI9
aI2
aI6
aI9
aI2
aI4
aI3
aI1
aa(lp306
I18
aI9
aI1
aI1
aI7
aI9
aI3
aI1
aI5
aI4
aa(lp307
I17
aI8
aI6
aI1
aI8
aI6
aI3
aI4
aI4
aI4
aa(lp308
I16
aI6
aI6
aI3
aI2
aI10
aI4
aI5
aI11
aI4
aasS'adibcejgfh'
p309
(lp310
(lp311
I9
aI11
aI9
aI6
aI4
aI4
aI1
aI5
aI3
aI6
aa(lp312
I10
aI8
aI9
aI12
aI6
aI7
aI8
aI4
aI1
aI5
aa(lp313
I14
aI8
aI5
aI10
aI5
aI4
aI7
aI7
aI7
aI8
aa(lp314
I15
aI8
aI4
aI8
aI4
aI4
aI9
aI6
aI7
aI6
aa(lp315
I12
aI9
aI8
aI6
aI4
aI6
aI4
aI6
aI4
aI8
aasS'djhecibagf'
p316
(lp317
(lp318
I13
aI11
aI6
aI6
aI3
aI5
aI5
aI2
aI6
aI6
aa(lp319
I14
aI6
aI7
aI4
aI6
aI6
aI10
aI4
aI5
aI1
aa(lp320
I16
aI11
aI10
aI6
aI4
aI7
aI9
aI3
aI7
aI1
aa(lp321
I13
aI14
aI10
aI10
aI6
aI8
aI6
aI4
aI7
aI3
aa(lp322
I10
aI8
aI10
aI9
aI3
aI6
aI5
aI1
aI2
aI7
aasS'cghfijebda'
p323
(lp324
(lp325
I18
aI11
aI6
aI3
aI7
aI6
aI1
aI11
aI3
aI4
aa(lp326
I17
aI11
aI7
aI2
aI9
aI7
aI5
aI3
aI5
aI3
aa(lp327
I17
aI10
aI10
aI4
aI3
aI6
aI1
aI5
aI1
aI4
aa(lp328
I15
aI11
aI6
aI6
aI8
aI4
aI3
aI8
aI5
aI2
aa(lp329
I14
aI9
aI6
aI6
aI4
aI6
aI2
aI7
aI4
aI3
aasS'hfdeajcigb'
p330
(lp331
(lp332
I18
aI10
aI5
aI4
aI1
aI7
aI7
aI8
aI7
aI6
aa(lp333
I11
aI11
aI6
aI7
aI4
aI3
aI2
aI1
aI4
aI4
aa(lp334
I14
aI13
aI10
aI10
aI3
aI6
aI2
aI5
aI5
aI8
aa(lp335
I11
aI17
aI6
aI5
aI3
aI7
aI3
aI9
aI6
aI11
aa(lp336
I19
aI16
aI10
aI7
aI3
aI7
aI2
aI6
aI4
aI5
aasS'iejdgfcahb'
p337
(lp338
(lp339
I17
aI10
aI6
aI4
aI4
aI4
aI5
aI2
aI10
aI3
aa(lp340
I14
aI11
aI7
aI5
aI4
aI2
aI1
aI3
aI4
aI5
aa(lp341
I16
aI5
aI8
aI3
aI3
aI8
aI5
aI6
aI2
aI8
aa(lp342
I17
aI13
aI12
aI6
aI6
aI1
aI4
aI2
aI3
aI1
aa(lp343
I15
aI9
aI8
aI6
aI7
aI8
aI1
aI3
aI5
aI7
aasS'hdcfjgeaib'
p344
(lp345
(lp346
I14
aI10
aI8
aI5
aI4
aI8
aI5
aI1
aI3
aI7
aa(lp347
I19
aI10
aI9
aI5
aI7
aI6
aI7
aI3
aI3
aI6
aa(lp348
I18
aI10
aI8
aI2
aI5
aI6
aI7
aI2
aI5
aI7
aa(lp349
I14
aI6
aI7
aI3
aI8
aI5
aI4
aI4
aI9
aI8
aa(lp350
I14
aI8
aI4
aI2
aI3
aI9
aI8
aI4
aI6
aI8
aasS'dfihajebgc'
p351
(lp352
(lp353
I12
aI10
aI8
aI7
aI3
aI7
aI5
aI9
aI9
aI4
aa(lp354
I15
aI12
aI3
aI6
aI2
aI6
aI2
aI7
aI3
aI6
aa(lp355
I15
aI8
aI9
aI7
aI3
aI9
aI8
aI8
aI5
aI3
aa(lp356
I17
aI11
aI6
aI2
aI3
aI4
aI7
aI8
aI3
aI5
aa(lp357
I17
aI11
aI9
aI7
aI3
aI4
aI7
aI10
aI6
aI4
aasS'ehacjbdigf'
p358
(lp359
(lp360
I15
aI8
aI3
aI3
aI10
aI9
aI3
aI5
aI10
aI8
aa(lp361
I17
aI9
aI1
aI4
aI5
aI10
aI5
aI7
aI8
aI4
aa(lp362
I16
aI11
aI3
aI6
aI6
aI10
aI4
aI2
aI8
aI1
aa(lp363
I18
aI9
aI1
aI6
aI6
aI9
aI5
aI6
aI4
aI4
aa(lp364
I17
aI8
aI2
aI7
aI3
aI7
aI4
aI3
aI4
aI4
aasS'idchbfegaj'
p365
(lp366
(lp367
I10
aI2
aI8
aI7
aI10
aI8
aI7
aI5
aI4
aI8
aa(lp368
I14
aI7
aI6
aI6
aI9
aI2
aI5
aI4
aI3
aI6
aa(lp369
I19
aI2
aI5
aI3
aI5
aI6
aI4
aI5
aI3
aI4
aa(lp370
I17
aI8
aI4
aI4
aI8
aI4
aI4
aI6
aI1
aI5
aa(lp371
I19
aI5
aI8
aI5
aI11
aI5
aI3
aI9
aI6
aI6
aasS'dajciegbhf'
p372
(lp373
(lp374
I14
aI3
aI9
aI8
aI3
aI7
aI10
aI5
aI4
aI4
aa(lp375
I17
aI8
aI9
aI4
aI6
aI6
aI7
aI5
aI7
aI5
aa(lp376
I12
aI10
aI10
aI7
aI9
aI5
aI6
aI7
aI7
aI8
aa(lp377
I15
aI7
aI8
aI3
aI10
aI6
aI1
aI9
aI5
aI6
aa(lp378
I18
aI7
aI11
aI4
aI2
aI6
aI6
aI7
aI3
aI2
aasS'chgifdaejb'
p379
(lp380
(lp381
I20
aI5
aI10
aI6
aI6
aI2
aI6
aI3
aI6
aI6
aa(lp382
I12
aI10
aI8
aI10
aI2
aI5
aI4
aI2
aI9
aI8
aa(lp383
I17
aI8
aI6
aI6
aI5
aI2
aI3
aI3
aI6
aI6
aa(lp384
I10
aI12
aI11
aI2
aI4
aI2
aI2
aI3
aI2
aI9
aa(lp385
I17
aI13
aI4
aI9
aI8
aI4
aI3
aI7
aI2
aI5
aasS'jdefbcgahi'
p386
(lp387
(lp388
I14
aI7
aI8
aI5
aI5
aI2
aI1
aI5
aI5
aI5
aa(lp389
I19
aI8
aI11
aI2
aI8
aI3
aI4
aI4
aI7
aI6
aa(lp390
I18
aI9
aI9
aI1
aI8
aI3
aI5
aI4
aI7
aI4
aa(lp391
I17
aI5
aI9
aI11
aI8
aI1
aI4
aI4
aI3
aI6
aa(lp392
I18
aI8
aI7
aI5
aI8
aI3
aI1
aI3
aI2
aI5
aasS'ijahcdbgfe'
p393
(lp394
(lp395
I19
aI10
aI5
aI4
aI3
aI4
aI7
aI5
aI3
aI5
aa(lp396
I16
aI10
aI4
aI6
aI7
aI3
aI9
aI4
aI6
aI4
aa(lp397
I15
aI8
aI6
aI5
aI5
aI5
aI9
aI8
aI6
aI4
aa(lp398
I17
aI10
aI3
aI7
aI4
aI6
aI5
aI3
aI6
aI3
aa(lp399
I14
aI9
aI5
aI6
aI3
aI6
aI7
aI7
aI3
aI8
aasS'chajedgbfi'
p400
(lp401
(lp402
I17
aI5
aI0
aI9
aI8
aI6
aI6
aI7
aI4
aI5
aa(lp403
I14
aI11
aI2
aI2
aI7
aI4
aI8
aI8
aI1
aI6
aa(lp404
I15
aI5
aI6
aI4
aI3
aI6
aI6
aI5
aI5
aI4
aa(lp405
I15
aI10
aI4
aI6
aI10
aI4
aI8
aI7
aI4
aI5
aa(lp406
I14
aI11
aI2
aI7
aI5
aI9
aI7
aI8
aI3
aI4
aasS'cdbjgaiehf'
p407
(lp408
(lp409
I17
aI7
aI8
aI7
aI7
aI3
aI4
aI5
aI3
aI6
aa(lp410
I19
aI5
aI7
aI8
aI6
aI2
aI9
aI4
aI2
aI8
aa(lp411
I15
aI7
aI13
aI7
aI7
aI5
aI5
aI1
aI3
aI5
aa(lp412
I14
aI12
aI8
aI5
aI6
aI7
aI5
aI6
aI8
aI2
aa(lp413
I15
aI6
aI8
aI7
aI8
aI5
aI6
aI2
aI4
aI1
aasS'dabgihecfj'
p414
(lp415
(lp416
I17
aI5
aI12
aI6
aI7
aI8
aI3
aI5
aI4
aI4
aa(lp417
I19
aI6
aI9
aI8
aI7
aI3
aI4
aI3
aI5
aI5
aa(lp418
I15
aI6
aI9
aI9
aI6
aI5
aI5
aI3
aI3
aI3
aa(lp419
I16
aI10
aI9
aI8
aI8
aI8
aI5
aI4
aI3
aI3
aa(lp420
I8
aI9
aI11
aI4
aI6
aI3
aI4
aI3
aI1
aI5
aasS'cahedgfjbi'
p421
(lp422
(lp423
I17
aI8
aI5
aI5
aI7
aI8
aI2
aI6
aI10
aI6
aa(lp424
I16
aI9
aI9
aI8
aI3
aI8
aI3
aI4
aI7
aI2
aa(lp425
I11
aI9
aI7
aI8
aI6
aI4
aI3
aI6
aI7
aI4
aa(lp426
I10
aI5
aI9
aI8
aI5
aI6
aI4
aI7
aI8
aI5
aa(lp427
I15
aI6
aI9
aI9
aI4
aI9
aI1
aI5
aI4
aI6
aasS'jcghdeiafb'
p428
(lp429
(lp430
I22
aI9
aI4
aI5
aI2
aI2
aI7
aI3
aI3
aI4
aa(lp431
I12
aI9
aI7
aI4
aI3
aI4
aI7
aI5
aI3
aI9
aa(lp432
I21
aI8
aI5
aI2
aI6
aI6
aI5
aI1
aI3
aI3
aa(lp433
I20
aI7
aI10
aI6
aI1
aI3
aI9
aI5
aI2
aI8
aa(lp434
I19
aI7
aI7
aI5
aI4
aI6
aI7
aI3
aI7
aI6
aasS'ibjagchedf'
p435
(lp436
(lp437
I17
aI8
aI6
aI5
aI5
aI6
aI4
aI4
aI2
aI6
aa(lp438
I19
aI8
aI9
aI5
aI6
aI6
aI4
aI3
aI5
aI5
aa(lp439
I18
aI10
aI7
aI6
aI3
aI5
aI6
aI8
aI4
aI3
aa(lp440
I14
aI10
aI4
aI3
aI6
aI5
aI7
aI3
aI1
aI3
aa(lp441
I17
aI10
aI7
aI7
aI1
aI6
aI6
aI3
aI6
aI3
aasS'abjhegcdif'
p442
(lp443
(lp444
I14
aI4
aI10
aI7
aI6
aI8
aI3
aI3
aI7
aI7
aa(lp445
I13
aI8
aI10
aI4
aI1
aI8
aI3
aI2
aI8
aI8
aa(lp446
I14
aI14
aI8
aI3
aI7
aI7
aI2
aI4
aI3
aI4
aa(lp447
I10
aI9
aI8
aI8
aI9
aI7
aI4
aI4
aI6
aI4
aa(lp448
I13
aI11
aI10
aI5
aI8
aI11
aI6
aI3
aI6
aI2
aasS'baeigjdchf'
p449
(lp450
(lp451
I10
aI9
aI11
aI6
aI7
aI6
aI4
aI2
aI9
aI5
aa(lp452
I15
aI7
aI9
aI8
aI7
aI3
aI2
aI7
aI5
aI1
aa(lp453
I19
aI5
aI10
aI7
aI9
aI4
aI2
aI1
aI3
aI8
aa(lp454
I16
aI8
aI10
aI7
aI7
aI5
aI1
aI1
aI5
aI3
aa(lp455
I15
aI5
aI9
aI11
aI9
aI3
aI2
aI3
aI3
aI4
aasS'ghjdfaceib'
p456
(lp457
(lp458
I17
aI11
aI9
aI5
aI3
aI5
aI7
aI2
aI5
aI4
aa(lp459
I17
aI8
aI10
aI2
aI4
aI5
aI5
aI4
aI4
aI5
aa(lp460
I15
aI11
aI3
aI5
aI5
aI6
aI4
aI8
aI9
aI8
aa(lp461
I17
aI9
aI7
aI2
aI6
aI3
aI4
aI1
aI7
aI10
aa(lp462
I16
aI13
aI3
aI4
aI5
aI2
aI5
aI4
aI4
aI5
aasS'jdeacgbfih'
p463
(lp464
(lp465
I14
aI8
aI3
aI2
aI4
aI8
aI6
aI5
aI7
aI2
aa(lp466
I18
aI7
aI10
aI5
aI5
aI5
aI3
aI2
aI6
aI7
aa(lp467
I16
aI5
aI8
aI3
aI2
aI9
aI10
aI5
aI5
aI9
aa(lp468
I17
aI6
aI9
aI4
aI2
aI4
aI9
aI4
aI8
aI6
aa(lp469
I15
aI7
aI2
aI4
aI2
aI8
aI8
aI6
aI4
aI5
aasS'ghfedjacbi'
p470
(lp471
(lp472
I17
aI15
aI8
aI7
aI3
aI6
aI2
aI1
aI7
aI4
aa(lp473
I17
aI6
aI7
aI6
aI3
aI4
aI2
aI4
aI11
aI3
aa(lp474
I12
aI11
aI5
aI4
aI4
aI3
aI6
aI3
aI6
aI8
aa(lp475
I14
aI12
aI3
aI10
aI3
aI5
aI1
aI6
aI6
aI8
aa(lp476
I15
aI14
aI7
aI2
aI6
aI4
aI3
aI3
aI6
aI4
aasS'fceibghjda'
p477
(lp478
(lp479
I17
aI5
aI9
aI7
aI5
aI5
aI7
aI5
aI3
aI4
aa(lp480
I23
aI3
aI4
aI6
aI12
aI8
aI8
aI4
aI4
aI4
aa(lp481
I15
aI7
aI11
aI8
aI4
aI8
aI2
aI4
aI2
aI2
aa(lp482
I20
aI3
aI12
aI8
aI8
aI1
aI3
aI7
aI4
aI4
aa(lp483
I16
aI7
aI8
aI9
aI5
aI8
aI9
aI7
aI2
aI3
aasS'ifdbjcgeha'
p484
(lp485
(lp486
I19
aI10
aI3
aI6
aI5
aI4
aI7
aI4
aI3
aI2
aa(lp487
I17
aI10
aI5
aI6
aI7
aI3
aI3
aI5
aI1
aI4
aa(lp488
I17
aI2
aI4
aI11
aI6
aI2
aI6
aI6
aI5
aI3
aa(lp489
I13
aI9
aI5
aI6
aI6
aI5
aI3
aI5
aI7
aI1
aa(lp490
I12
aI13
aI4
aI4
aI10
aI4
aI4
aI3
aI4
aI3
aasS'dcbhgfjiea'
p491
(lp492
(lp493
I12
aI12
aI7
aI7
aI7
aI2
aI8
aI4
aI3
aI3
aa(lp494
I14
aI9
aI9
aI5
aI7
aI4
aI4
aI4
aI4
aI3
aa(lp495
I14
aI11
aI9
aI3
aI6
aI5
aI7
aI9
aI4
aI3
aa(lp496
I16
aI8
aI10
aI5
aI7
aI3
aI5
aI5
aI6
aI2
aa(lp497
I14
aI3
aI9
aI6
aI8
aI5
aI6
aI3
aI7
aI2
aasS'ebdichgjfa'
p498
(lp499
(lp500
I15
aI8
aI6
aI5
aI1
aI7
aI4
aI5
aI2
aI4
aa(lp501
I17
aI11
aI3
aI9
aI1
aI8
aI8
aI7
aI1
aI3
aa(lp502
I14
aI6
aI6
aI8
aI5
aI4
aI4
aI2
aI3
aI2
aa(lp503
I13
aI11
aI3
aI7
aI3
aI6
aI3
aI6
aI6
aI4
aa(lp504
I20
aI7
aI5
aI3
aI6
aI6
aI7
aI6
aI2
aI4
aasS'gcfhebaidj'
p505
(lp506
(lp507
I12
aI10
aI5
aI5
aI6
aI7
aI3
aI4
aI4
aI5
aa(lp508
I17
aI7
aI5
aI8
aI7
aI6
aI2
aI3
aI3
aI2
aa(lp509
I12
aI9
aI8
aI10
aI7
aI6
aI5
aI7
aI3
aI7
aa(lp510
I18
aI9
aI8
aI3
aI4
aI10
aI3
aI9
aI6
aI5
aa(lp511
I18
aI7
aI6
aI13
aI5
aI8
aI5
aI7
aI5
aI3
aasS'feiahdbcgj'
p512
(lp513
(lp514
I14
aI12
aI8
aI2
aI6
aI6
aI7
aI4
aI6
aI1
aa(lp515
I19
aI9
aI7
aI4
aI5
aI6
aI7
aI5
aI4
aI1
aa(lp516
I14
aI8
aI5
aI3
aI4
aI3
aI6
aI4
aI8
aI6
aa(lp517
I17
aI7
aI10
aI2
aI2
aI4
aI5
aI5
aI7
aI4
aa(lp518
I19
aI8
aI8
aI3
aI2
aI1
aI8
aI3
aI3
aI6
aasS'bihagdcfej'
p519
(lp520
(lp521
I14
aI15
aI7
aI4
aI7
aI2
aI4
aI5
aI3
aI3
aa(lp522
I15
aI9
aI9
aI5
aI7
aI3
aI7
aI5
aI5
aI5
aa(lp523
I18
aI11
aI6
aI1
aI8
aI3
aI4
aI5
aI8
aI6
aa(lp524
I16
aI13
aI7
aI1
aI8
aI3
aI6
aI5
aI5
aI4
aa(lp525
I18
aI14
aI3
aI5
aI8
aI6
aI4
aI3
aI4
aI5
aasS'hgbdfiejac'
p526
(lp527
(lp528
I19
aI10
aI8
aI9
aI2
aI6
aI5
aI4
aI4
aI3
aa(lp529
I16
aI10
aI7
aI2
aI7
aI6
aI5
aI4
aI3
aI1
aa(lp530
I9
aI15
aI8
aI5
aI4
aI4
aI7
aI3
aI3
aI2
aa(lp531
I18
aI13
aI8
aI4
aI7
aI4
aI8
aI6
aI2
aI3
aa(lp532
I15
aI8
aI7
aI2
aI7
aI1
aI5
aI6
aI4
aI3
aasS'fahbjdcieg'
p533
(lp534
(lp535
I19
aI8
aI2
aI6
aI5
aI4
aI2
aI5
aI3
aI2
aa(lp536
I15
aI3
aI5
aI6
aI7
aI7
aI2
aI6
aI4
aI6
aa(lp537
I18
aI7
aI5
aI8
aI7
aI8
aI3
aI6
aI5
aI6
aa(lp538
I16
aI8
aI8
aI10
aI7
aI4
aI4
aI3
aI5
aI4
aa(lp539
I20
aI9
aI7
aI5
aI7
aI6
aI1
aI6
aI4
aI2
aasS'hgfijbdcea'
p540
(lp541
(lp542
I12
aI16
aI11
aI6
aI5
aI7
aI1
aI4
aI3
aI2
aa(lp543
I13
aI15
aI7
aI7
aI3
aI8
aI1
aI5
aI5
aI3
aa(lp544
I11
aI10
aI7
aI8
aI1
aI3
aI2
aI6
aI5
aI4
aa(lp545
I16
aI15
aI3
aI7
aI6
aI7
aI1
aI1
aI2
aI2
aa(lp546
I15
aI14
aI7
aI6
aI6
aI4
aI3
aI1
aI3
aI3
aasS'fijcgbhdae'
p547
(lp548
(lp549
I15
aI9
aI7
aI2
aI6
aI8
aI6
aI4
aI3
aI3
aa(lp550
I22
aI6
aI8
aI7
aI6
aI3
aI5
aI4
aI3
aI7
aa(lp551
I14
aI10
aI7
aI7
aI7
aI8
aI6
aI2
aI3
aI3
aa(lp552
I17
aI7
aI9
aI3
aI7
aI6
aI6
aI3
aI5
aI5
aa(lp553
I15
aI7
aI9
aI5
aI4
aI4
aI5
aI1
aI7
aI4
aasS'fahjibegdc'
p554
(lp555
(lp556
I14
aI9
aI2
aI4
aI5
aI11
aI5
aI6
aI5
aI4
aa(lp557
I19
aI7
aI9
aI8
aI4
aI2
aI5
aI2
aI3
aI4
aa(lp558
I19
aI5
aI4
aI2
aI10
aI8
aI5
aI5
aI6
aI5
aa(lp559
I17
aI10
aI1
aI7
aI8
aI10
aI6
aI6
aI2
aI3
aa(lp560
I22
aI3
aI8
aI7
aI4
aI8
aI1
aI5
aI4
aI5
aasS'gbdfacheji'
p561
(lp562
(lp563
I14
aI9
aI3
aI5
aI8
aI5
aI5
aI4
aI7
aI4
aa(lp564
I18
aI10
aI3
aI6
aI4
aI3
aI3
aI6
aI6
aI8
aa(lp565
I17
aI10
aI5
aI5
aI7
aI2
aI4
aI5
aI7
aI6
aa(lp566
I10
aI10
aI6
aI12
aI5
aI1
aI7
aI5
aI4
aI7
aa(lp567
I13
aI7
aI6
aI10
aI7
aI2
aI2
aI5
aI5
aI7
aasS'bhjigeacdf'
p568
(lp569
(lp570
I14
aI6
aI8
aI6
aI7
aI9
aI3
aI2
aI5
aI4
aa(lp571
I17
aI10
aI10
aI9
aI9
aI1
aI4
aI6
aI3
aI3
aa(lp572
I13
aI8
aI10
aI8
aI6
aI3
aI3
aI5
aI4
aI5
aa(lp573
I14
aI10
aI9
aI1
aI6
aI6
aI2
aI5
aI3
aI7
aa(lp574
I16
aI4
aI9
aI6
aI5
aI10
aI4
aI1
aI4
aI4
aasS'jdaghbeicf'
p575
(lp576
(lp577
I19
aI11
aI8
aI2
aI6
aI6
aI5
aI5
aI2
aI3
aa(lp578
I16
aI7
aI7
aI3
aI1
aI6
aI6
aI7
aI2
aI6
aa(lp579
I15
aI8
aI8
aI8
aI5
aI5
aI3
aI5
aI7
aI6
aa(lp580
I19
aI6
aI5
aI7
aI1
aI7
aI5
aI5
aI2
aI7
aa(lp581
I18
aI4
aI7
aI7
aI4
aI5
aI6
aI7
aI4
aI6
aasS'ehdigjcfab'
p582
(lp583
(lp584
I16
aI9
aI8
aI2
aI6
aI3
aI5
aI7
aI2
aI9
aa(lp585
I18
aI7
aI5
aI6
aI5
aI6
aI4
aI8
aI3
aI11
aa(lp586
I14
aI5
aI4
aI4
aI8
aI4
aI4
aI3
aI3
aI4
aa(lp587
I18
aI7
aI4
aI1
aI5
aI5
aI2
aI4
aI2
aI3
aa(lp588
I18
aI7
aI6
aI2
aI2
aI7
aI7
aI3
aI2
aI7
aasS'fbecihgjad'
p589
(lp590
(lp591
I15
aI7
aI14
aI4
aI5
aI7
aI8
aI4
aI4
aI3
aa(lp592
I15
aI11
aI9
aI4
aI9
aI3
aI2
aI8
aI2
aI6
aa(lp593
I16
aI10
aI12
aI1
aI7
aI6
aI7
aI5
aI5
aI2
aa(lp594
I17
aI7
aI11
aI2
aI7
aI5
aI12
aI4
aI5
aI3
aa(lp595
I12
aI12
aI6
aI1
aI8
aI6
aI7
aI4
aI5
aI3
aasS'iebjdahcfg'
p596
(lp597
(lp598
I18
aI7
aI11
aI6
aI3
aI3
aI4
aI3
aI5
aI6
aa(lp599
I16
aI4
aI7
aI9
aI6
aI5
aI2
aI4
aI6
aI2
aa(lp600
I13
aI9
aI11
aI1
aI6
aI4
aI5
aI3
aI5
aI4
aa(lp601
I18
aI10
aI6
aI1
aI5
aI2
aI5
aI5
aI7
aI5
aa(lp602
I16
aI7
aI8
aI5
aI3
aI4
aI4
aI5
aI1
aI9
aasS'fbdjaghice'
p603
(lp604
(lp605
I17
aI6
aI8
aI4
aI6
aI7
aI3
aI4
aI6
aI5
aa(lp606
I20
aI7
aI6
aI8
aI3
aI6
aI7
aI6
aI2
aI4
aa(lp607
I10
aI11
aI5
aI8
aI7
aI3
aI4
aI7
aI5
aI3
aa(lp608
I19
aI9
aI6
aI8
aI4
aI2
aI4
aI8
aI4
aI4
aa(lp609
I19
aI7
aI4
aI9
aI5
aI4
aI2
aI8
aI5
aI6
aasS'bjfidcheag'
p610
(lp611
(lp612
I12
aI9
aI9
aI5
aI4
aI4
aI5
aI8
aI1
aI5
aa(lp613
I13
aI12
aI5
aI6
aI4
aI6
aI6
aI3
aI3
aI8
aa(lp614
I16
aI6
aI8
aI9
aI2
aI5
aI4
aI1
aI5
aI6
aa(lp615
I15
aI7
aI11
aI3
aI7
aI4
aI8
aI7
aI1
aI6
aa(lp616
I9
aI10
aI10
aI10
aI2
aI3
aI5
aI4
aI2
aI5
aasS'ahigbejdfc'
p617
(lp618
(lp619
I14
aI3
aI2
aI11
aI7
aI2
aI6
aI4
aI7
aI6
aa(lp620
I13
aI3
aI10
aI10
aI8
aI6
aI4
aI3
aI5
aI4
aa(lp621
I6
aI9
aI10
aI10
aI4
aI4
aI6
aI2
aI7
aI3
aa(lp622
I10
aI7
aI9
aI8
aI5
aI5
aI2
aI5
aI3
aI3
aa(lp623
I13
aI9
aI11
aI11
aI11
aI1
aI1
aI6
aI4
aI2
aasS'fjbhgdaice'
p624
(lp625
(lp626
I19
aI9
aI10
aI9
aI2
aI4
aI5
aI7
aI1
aI2
aa(lp627
I18
aI11
aI10
aI6
aI6
aI3
aI5
aI5
aI3
aI3
aa(lp628
I16
aI1
aI6
aI9
aI9
aI3
aI3
aI7
aI6
aI8
aa(lp629
I15
aI9
aI9
aI7
aI6
aI1
aI1
aI5
aI3
aI6
aa(lp630
I20
aI8
aI8
aI5
aI8
aI3
aI9
aI4
aI4
aI2
aasS'fegbhijdca'
p631
(lp632
(lp633
I17
aI10
aI10
aI6
aI5
aI7
aI4
aI3
aI6
aI3
aa(lp634
I16
aI8
aI7
aI6
aI6
aI2
aI1
aI1
aI4
aI5
aa(lp635
I14
aI9
aI8
aI5
aI7
aI2
aI5
aI5
aI5
aI5
aa(lp636
I17
aI8
aI6
aI9
aI2
aI6
aI5
aI5
aI5
aI4
aa(lp637
I21
aI6
aI11
aI8
aI4
aI7
aI4
aI4
aI2
aI5
aasS'hgajcfedbi'
p638
(lp639
(lp640
I14
aI12
aI2
aI8
aI6
aI5
aI1
aI3
aI4
aI6
aa(lp641
I14
aI11
aI4
aI6
aI3
aI3
aI6
aI2
aI8
aI4
aa(lp642
I16
aI12
aI4
aI7
aI7
aI3
aI1
aI3
aI8
aI7
aa(lp643
I15
aI16
aI4
aI1
aI4
aI6
aI6
aI3
aI8
aI4
aa(lp644
I16
aI14
aI2
aI2
aI4
aI4
aI5
aI3
aI5
aI5
aasS'degajbchif'
p645
(lp646
(lp647
I15
aI9
aI6
aI2
aI10
aI10
aI5
aI6
aI6
aI2
aa(lp648
I11
aI10
aI8
aI5
aI8
aI4
aI2
aI5
aI4
aI4
aa(lp649
I18
aI2
aI7
aI5
aI9
aI11
aI3
aI3
aI5
aI8
aa(lp650
I17
aI11
aI3
aI4
aI6
aI10
aI3
aI7
aI11
aI4
aa(lp651
I11
aI13
aI5
aI1
aI10
aI5
aI5
aI2
aI6
aI3
aasS'gbhfdeiajc'
p652
(lp653
(lp654
I17
aI8
aI10
aI7
aI3
aI8
aI1
aI5
aI5
aI3
aa(lp655
I10
aI12
aI10
aI7
aI3
aI3
aI4
aI2
aI4
aI5
aa(lp656
I19
aI9
aI6
aI7
aI4
aI7
aI5
aI4
aI3
aI4
aa(lp657
I11
aI9
aI6
aI6
aI3
aI8
aI2
aI4
aI5
aI5
aa(lp658
I14
aI8
aI6
aI9
aI4
aI4
aI5
aI3
aI2
aI5
aasS'hfbcgejiad'
p659
(lp660
(lp661
I13
aI15
aI9
aI4
aI8
aI7
aI5
aI3
aI3
aI5
aa(lp662
I16
aI16
aI7
aI5
aI7
aI8
aI2
aI1
aI3
aI4
aa(lp663
I17
aI13
aI5
aI6
aI7
aI4
aI8
aI8
aI4
aI3
aa(lp664
I12
aI14
aI7
aI2
aI8
aI11
aI9
aI6
aI5
aI3
aa(lp665
I13
aI9
aI1
aI5
aI10
aI5
aI5
aI5
aI3
aI2
aasS'bfjdcahgei'
p666
(lp667
(lp668
I13
aI4
aI7
aI2
aI1
aI7
aI5
aI3
aI4
aI3
aa(lp669
I14
aI10
aI5
aI1
aI1
aI5
aI4
aI5
aI5
aI7
aa(lp670
I16
aI10
aI10
aI6
aI3
aI6
aI5
aI2
aI3
aI8
aa(lp671
I18
aI10
aI8
aI7
aI4
aI6
aI2
aI5
aI5
aI6
aa(lp672
I12
aI5
aI9
aI5
aI4
aI5
aI5
aI9
aI5
aI7
aasS'cfiabdhjeg'
p673
(lp674
(lp675
I11
aI14
aI10
aI1
aI11
aI5
aI5
aI5
aI4
aI6
aa(lp676
I17
aI9
aI9
aI5
aI7
aI6
aI1
aI6
aI6
aI3
aa(lp677
I18
aI4
aI12
aI6
aI6
aI2
aI2
aI8
aI5
aI4
aa(lp678
I17
aI7
aI11
aI2
aI6
aI2
aI7
aI5
aI5
aI7
aa(lp679
I18
aI8
aI9
aI4
aI9
aI5
aI3
aI7
aI4
aI9
aasS'afjdcgibhe'
p680
(lp681
(lp682
I12
aI16
aI9
aI3
aI2
aI7
aI10
aI7
aI4
aI2
aa(lp683
I14
aI10
aI7
aI3
aI5
aI8
aI6
aI7
aI5
aI7
aa(lp684
I13
aI13
aI10
aI1
aI1
aI6
aI7
aI9
aI7
aI4
aa(lp685
I16
aI12
aI12
aI5
aI2
aI6
aI7
aI8
aI3
aI6
aa(lp686
I14
aI7
aI10
aI3
aI4
aI5
aI5
aI9
aI5
aI3
aasS'fbgjcaedhi'
p687
(lp688
(lp689
I13
aI9
aI4
aI6
aI8
aI5
aI1
aI4
aI4
aI4
aa(lp690
I17
aI4
aI5
aI1
aI2
aI5
aI5
aI6
aI5
aI4
aa(lp691
I15
aI8
aI6
aI3
aI3
aI4
aI8
aI2
aI4
aI2
aa(lp692
I18
aI10
aI10
aI7
aI4
aI3
aI4
aI4
aI7
aI6
aa(lp693
I17
aI8
aI10
aI5
aI5
aI4
aI2
aI4
aI7
aI4
aasS'agicdejbfh'
p694
(lp695
(lp696
I14
aI10
aI6
aI6
aI2
aI4
aI4
aI9
aI2
aI2
aa(lp697
I15
aI13
aI8
aI5
aI3
aI6
aI7
aI8
aI5
aI2
aa(lp698
I12
aI8
aI6
aI7
aI5
aI6
aI5
aI7
aI6
aI3
aa(lp699
I6
aI10
aI11
aI6
aI3
aI3
aI5
aI9
aI4
aI8
aa(lp700
I14
aI13
aI7
aI4
aI5
aI8
aI9
aI9
aI2
aI6
aasS'jghaidfbec'
p701
(lp702
(lp703
I16
aI12
aI6
aI5
aI6
aI6
aI6
aI6
aI1
aI4
aa(lp704
I17
aI12
aI7
aI5
aI1
aI5
aI4
aI5
aI1
aI3
aa(lp705
I16
aI11
aI2
aI2
aI11
aI1
aI3
aI2
aI6
aI5
aa(lp706
I14
aI9
aI6
aI7
aI7
aI6
aI4
aI7
aI4
aI1
aa(lp707
I19
aI7
aI7
aI4
aI7
aI3
aI4
aI5
aI2
aI2
aasS'ideabhjfcg'
p708
(lp709
(lp710
I18
aI7
aI9
aI1
aI9
aI3
aI6
aI6
aI1
aI3
aa(lp711
I17
aI5
aI5
aI7
aI8
aI2
aI3
aI7
aI2
aI6
aa(lp712
I18
aI5
aI8
aI5
aI4
aI3
aI7
aI6
aI4
aI7
aa(lp713
I18
aI4
aI1
aI2
aI10
aI4
aI7
aI5
aI1
aI4
aa(lp714
I17
aI7
aI7
aI3
aI10
aI3
aI4
aI6
aI4
aI5
aasS'begcfdiajh'
p715
(lp716
(lp717
I17
aI10
aI9
aI5
aI1
aI4
aI6
aI5
aI3
aI7
aa(lp718
I18
aI14
aI11
aI3
aI5
aI2
aI1
aI4
aI2
aI7
aa(lp719
I20
aI13
aI7
aI4
aI6
aI3
aI7
aI3
aI7
aI1
aa(lp720
I15
aI10
aI6
aI4
aI3
aI4
aI5
aI2
aI2
aI6
aa(lp721
I14
aI11
aI7
aI3
aI9
aI3
aI6
aI5
aI4
aI4
aasS'adfhbjigec'
p722
(lp723
(lp724
I12
aI7
aI8
aI9
aI6
aI5
aI8
aI1
aI5
aI3
aa(lp725
I12
aI10
aI9
aI5
aI6
aI7
aI8
aI6
aI5
aI5
aa(lp726
I12
aI10
aI6
aI5
aI8
aI8
aI4
aI6
aI8
aI2
aa(lp727
I15
aI8
aI8
aI6
aI5
aI6
aI5
aI6
aI3
aI3
aa(lp728
I9
aI8
aI6
aI6
aI7
aI8
aI3
aI5
aI1
aI4
aasS'ifdajgbech'
p729
(lp730
(lp731
I15
aI9
aI3
aI3
aI8
aI6
aI11
aI1
aI3
aI3
aa(lp732
I15
aI10
aI6
aI6
aI6
aI3
aI6
aI4
aI3
aI3
aa(lp733
I13
aI10
aI6
aI3
aI8
aI1
aI8
aI9
aI2
aI5
aa(lp734
I16
aI6
aI8
aI7
aI4
aI6
aI7
aI2
aI3
aI5
aa(lp735
I16
aI10
aI3
aI5
aI7
aI8
aI9
aI6
aI1
aI7
aasS'ihjbcfgade'
p736
(lp737
(lp738
I14
aI7
aI8
aI11
aI4
aI5
aI5
aI6
aI2
aI3
aa(lp739
I15
aI8
aI9
aI11
aI5
aI4
aI10
aI4
aI5
aI6
aa(lp740
I14
aI10
aI9
aI9
aI7
aI5
aI1
aI2
aI6
aI6
aa(lp741
I19
aI2
aI6
aI3
aI6
aI4
aI7
aI2
aI1
aI2
aa(lp742
I18
aI8
aI10
aI7
aI5
aI6
aI4
aI2
aI3
aI5
aasS'dcgefhaijb'
p743
(lp744
(lp745
I10
aI11
aI7
aI8
aI5
aI7
aI2
aI7
aI6
aI5
aa(lp746
I15
aI6
aI8
aI9
aI1
aI9
aI3
aI5
aI3
aI9
aa(lp747
I17
aI7
aI7
aI10
aI6
aI5
aI1
aI5
aI5
aI7
aa(lp748
I13
aI6
aI8
aI8
aI4
aI2
aI3
aI5
aI7
aI2
aa(lp749
I12
aI8
aI9
aI8
aI2
aI8
aI2
aI6
aI2
aI8
aasS'cjbdiagfhe'
p750
(lp751
(lp752
I17
aI9
aI9
aI4
aI7
aI2
aI5
aI5
aI4
aI4
aa(lp753
I15
aI9
aI7
aI7
aI11
aI4
aI2
aI7
aI3
aI5
aa(lp754
I14
aI9
aI7
aI4
aI10
aI5
aI7
aI6
aI7
aI8
aa(lp755
I19
aI8
aI6
aI7
aI3
aI6
aI7
aI3
aI3
aI3
aa(lp756
I17
aI10
aI11
aI7
aI7
aI5
aI4
aI4
aI2
aI5
aasS'achgbdjfie'
p757
(lp758
(lp759
I13
aI6
aI8
aI11
aI2
aI2
aI5
aI6
aI3
aI3
aa(lp760
I13
aI15
aI4
aI8
aI7
aI5
aI3
aI5
aI9
aI5
aa(lp761
I10
aI12
aI5
aI8
aI7
aI3
aI6
aI4
aI7
aI5
aa(lp762
I10
aI7
aI9
aI7
aI5
aI3
aI8
aI1
aI7
aI2
aa(lp763
I9
aI10
aI10
aI6
aI7
aI4
aI4
aI4
aI4
aI6
aasS'hcadjigefb'
p764
(lp765
(lp766
I13
aI9
aI6
aI7
aI6
aI6
aI6
aI3
aI1
aI7
aa(lp767
I16
aI14
aI3
aI5
aI5
aI5
aI7
aI7
aI3
aI7
aa(lp768
I14
aI14
aI1
aI5
aI3
aI10
aI7
aI4
aI5
aI6
aa(lp769
I17
aI10
aI4
aI5
aI6
aI2
aI6
aI6
aI6
aI7
aa(lp770
I14
aI13
aI4
aI9
aI2
aI3
aI6
aI7
aI5
aI3
aasS'hgbcfiajde'
p771
(lp772
(lp773
I17
aI8
aI4
aI9
aI6
aI8
aI2
aI4
aI1
aI7
aa(lp774
I17
aI7
aI9
aI4
aI6
aI8
aI1
aI7
aI3
aI1
aa(lp775
I11
aI13
aI9
aI7
aI5
aI2
aI5
aI7
aI2
aI5
aa(lp776
I15
aI11
aI9
aI7
aI2
aI4
aI4
aI4
aI4
aI4
aa(lp777
I14
aI12
aI7
aI4
aI6
aI2
aI2
aI1
aI4
aI5
aasS'aghfjedbic'
p778
(lp779
(lp780
I12
aI10
aI8
aI9
aI7
aI7
aI3
aI1
aI6
aI6
aa(lp781
I13
aI12
aI5
aI6
aI8
aI5
aI5
aI5
aI6
aI4
aa(lp782
I13
aI10
aI7
aI7
aI9
aI5
aI4
aI1
aI6
aI4
aa(lp783
I12
aI8
aI8
aI5
aI6
aI5
aI4
aI8
aI7
aI3
aa(lp784
I14
aI13
aI9
aI7
aI6
aI6
aI4
aI6
aI8
aI4
aasS'jigbcheadf'
p785
(lp786
(lp787
I17
aI11
aI8
aI9
aI4
aI6
aI5
aI1
aI1
aI5
aa(lp788
I15
aI10
aI6
aI9
aI5
aI5
aI3
aI3
aI3
aI3
aa(lp789
I18
aI6
aI4
aI11
aI4
aI4
aI6
aI2
aI5
aI5
aa(lp790
I15
aI11
aI6
aI8
aI3
aI8
aI5
aI5
aI4
aI3
aa(lp791
I19
aI14
aI7
aI9
aI4
aI7
aI3
aI3
aI2
aI2
aasS'ebiadgjhcf'
p792
(lp793
(lp794
I19
aI8
aI5
aI3
aI6
aI7
aI5
aI5
aI2
aI5
aa(lp795
I16
aI9
aI7
aI5
aI6
aI5
aI6
aI6
aI4
aI2
aa(lp796
I15
aI6
aI6
aI3
aI4
aI3
aI3
aI5
aI2
aI2
aa(lp797
I15
aI11
aI8
aI3
aI4
aI4
aI7
aI4
aI3
aI1
aa(lp798
I14
aI10
aI9
aI5
aI7
aI1
aI10
aI5
aI5
aI5
aasS'fabjgchdei'
p799
(lp800
(lp801
I19
aI7
aI8
aI6
aI5
aI5
aI2
aI5
aI2
aI5
aa(lp802
I19
aI2
aI9
aI7
aI8
aI2
aI4
aI5
aI4
aI5
aa(lp803
I19
aI5
aI5
aI10
aI6
aI5
aI6
aI5
aI7
aI6
aa(lp804
I18
aI6
aI10
aI7
aI7
aI2
aI7
aI4
aI5
aI7
aa(lp805
I17
aI6
aI8
aI8
aI8
aI6
aI8
aI3
aI7
aI2
aasS'hafjibdecg'
p806
(lp807
(lp808
I10
aI7
aI8
aI10
aI8
aI7
aI4
aI4
aI4
aI3
aa(lp809
I12
aI5
aI6
aI9
aI8
aI8
aI6
aI6
aI5
aI5
aa(lp810
I12
aI4
aI11
aI6
aI7
aI7
aI6
aI7
aI5
aI4
aa(lp811
I14
aI3
aI10
aI8
aI8
aI5
aI7
aI5
aI4
aI5
aa(lp812
I14
aI5
aI8
aI7
aI5
aI10
aI4
aI6
aI4
aI5
aasS'dfebjgicah'
p813
(lp814
(lp815
I15
aI12
aI10
aI7
aI7
aI5
aI4
aI2
aI3
aI3
aa(lp816
I15
aI14
aI3
aI5
aI5
aI4
aI3
aI3
aI4
aI6
aa(lp817
I12
aI9
aI7
aI9
aI7
aI2
aI1
aI2
aI4
aI3
aa(lp818
I11
aI12
aI9
aI10
aI7
aI6
aI6
aI4
aI5
aI6
aa(lp819
I16
aI7
aI6
aI9
aI3
aI5
aI6
aI6
aI2
aI6
aasS'ehjfdbicag'
p820
(lp821
(lp822
I14
aI6
aI8
aI4
aI4
aI2
aI6
aI2
aI2
aI9
aa(lp823
I15
aI6
aI7
aI8
aI6
aI5
aI6
aI4
aI5
aI8
aa(lp824
I16
aI6
aI7
aI3
aI4
aI10
aI7
aI5
aI4
aI7
aa(lp825
I15
aI5
aI5
aI2
aI8
aI2
aI4
aI3
aI3
aI6
aa(lp826
I19
aI6
aI7
aI3
aI4
aI11
aI6
aI4
aI4
aI5
aasS'jefdbgihac'
p827
(lp828
(lp829
I16
aI10
aI8
aI2
aI5
aI8
aI9
aI4
aI4
aI4
aa(lp830
I18
aI9
aI5
aI7
aI8
aI5
aI8
aI4
aI3
aI3
aa(lp831
I10
aI12
aI13
aI2
aI7
aI5
aI9
aI4
aI3
aI4
aa(lp832
I19
aI9
aI6
aI4
aI7
aI8
aI8
aI1
aI4
aI2
aa(lp833
I20
aI11
aI4
aI6
aI5
aI2
aI10
aI4
aI2
aI2
aasS'ghajidfceb'
p834
(lp835
(lp836
I18
aI13
aI3
aI6
aI3
aI4
aI4
aI5
aI4
aI7
aa(lp837
I16
aI8
aI6
aI5
aI8
aI3
aI7
aI5
aI6
aI10
aa(lp838
I14
aI10
aI5
aI8
aI4
aI4
aI5
aI1
aI5
aI7
aa(lp839
I15
aI12
aI2
aI3
aI6
aI5
aI8
aI1
aI7
aI5
aa(lp840
I17
aI10
aI5
aI5
aI7
aI4
aI7
aI4
aI6
aI7
aasS'dcjbghaief'
p841
(lp842
(lp843
I13
aI10
aI4
aI10
aI3
aI2
aI6
aI5
aI5
aI5
aa(lp844
I16
aI12
aI7
aI6
aI6
aI9
aI2
aI1
aI6
aI6
aa(lp845
I15
aI8
aI7
aI8
aI7
aI11
aI1
aI7
aI6
aI1
aa(lp846
I13
aI9
aI7
aI8
aI5
aI2
aI7
aI8
aI2
aI3
aa(lp847
I17
aI7
aI8
aI8
aI4
aI7
aI4
aI2
aI4
aI3
aasS'bdeigjhcaf'
p848
(lp849
(lp850
I16
aI8
aI5
aI7
aI3
aI5
aI5
aI3
aI1
aI4
aa(lp851
I15
aI7
aI9
aI1
aI4
aI4
aI1
aI1
aI4
aI1
aa(lp852
I16
aI8
aI8
aI6
aI8
aI7
aI7
aI1
aI2
aI4
aa(lp853
I17
aI7
aI10
aI5
aI4
aI4
aI2
aI2
aI3
aI4
aa(lp854
I13
aI10
aI9
aI7
aI5
aI3
aI9
aI6
aI4
aI2
aasS'cfagidhjbe'
p855
(lp856
(lp857
I15
aI11
aI2
aI9
aI3
aI2
aI8
aI4
aI7
aI8
aa(lp858
I17
aI2
aI6
aI6
aI5
aI4
aI3
aI4
aI1
aI2
aa(lp859
I12
aI6
aI7
aI10
aI6
aI2
aI7
aI7
aI6
aI2
aa(lp860
I13
aI10
aI6
aI3
aI4
aI5
aI4
aI6
aI10
aI5
aa(lp861
I20
aI6
aI5
aI8
aI4
aI4
aI7
aI8
aI9
aI5
aasS'iabgcedfjh'
p862
(lp863
(lp864
I16
aI9
aI10
aI8
aI3
aI4
aI5
aI6
aI8
aI4
aa(lp865
I17
aI7
aI9
aI8
aI4
aI3
aI2
aI3
aI6
aI1
aa(lp866
I20
aI9
aI11
aI8
aI2
aI4
aI3
aI5
aI7
aI5
aa(lp867
I18
aI8
aI7
aI7
aI2
aI5
aI4
aI9
aI6
aI2
aa(lp868
I19
aI8
aI14
aI10
aI3
aI5
aI1
aI6
aI6
aI3
aasS'eibhgcfdaj'
p869
(lp870
(lp871
I15
aI8
aI9
aI5
aI5
aI4
aI2
aI6
aI2
aI1
aa(lp872
I16
aI11
aI11
aI4
aI7
aI5
aI7
aI6
aI4
aI3
aa(lp873
I18
aI6
aI5
aI4
aI7
aI2
aI5
aI2
aI1
aI6
aa(lp874
I17
aI5
aI7
aI3
aI4
aI4
aI8
aI1
aI2
aI7
aa(lp875
I18
aI10
aI6
aI5
aI7
aI4
aI6
aI2
aI3
aI6
aasS'chjdifbega'
p876
(lp877
(lp878
I18
aI7
aI3
aI6
aI6
aI7
aI9
aI3
aI3
aI4
aa(lp879
I14
aI11
aI8
aI6
aI6
aI6
aI6
aI5
aI8
aI2
aa(lp880
I17
aI12
aI6
aI7
aI2
aI3
aI5
aI7
aI5
aI5
aa(lp881
I17
aI8
aI4
aI3
aI8
aI8
aI3
aI5
aI5
aI4
aa(lp882
I8
aI14
aI7
aI5
aI7
aI6
aI4
aI4
aI1
aI3
aasS'fgjiahebdc'
p883
(lp884
(lp885
I15
aI12
aI7
aI5
aI7
aI7
aI4
aI9
aI3
aI2
aa(lp886
I20
aI9
aI9
aI3
aI1
aI4
aI7
aI8
aI7
aI4
aa(lp887
I13
aI10
aI9
aI7
aI3
aI8
aI6
aI2
aI6
aI3
aa(lp888
I19
aI6
aI6
aI5
aI6
aI8
aI7
aI7
aI7
aI2
aa(lp889
I18
aI8
aI3
aI7
aI7
aI1
aI6
aI8
aI7
aI4
aasS'cdhegjfiab'
p890
(lp891
(lp892
I19
aI8
aI10
aI9
aI7
aI8
aI4
aI7
aI2
aI7
aa(lp893
I15
aI8
aI9
aI8
aI3
aI6
aI3
aI3
aI6
aI3
aa(lp894
I15
aI5
aI11
aI6
aI3
aI8
aI2
aI4
aI3
aI7
aa(lp895
I16
aI10
aI10
aI7
aI5
aI7
aI2
aI8
aI4
aI9
aa(lp896
I16
aI11
aI7
aI9
aI1
aI2
aI1
aI5
aI3
aI9
aasS'bdhfjgeaic'
p897
(lp898
(lp899
I16
aI5
aI6
aI9
aI6
aI8
aI3
aI7
aI3
aI1
aa(lp900
I13
aI9
aI8
aI3
aI8
aI7
aI9
aI4
aI4
aI2
aa(lp901
I18
aI7
aI5
aI3
aI7
aI6
aI6
aI2
aI8
aI1
aa(lp902
I9
aI11
aI7
aI9
aI8
aI7
aI6
aI1
aI7
aI2
aa(lp903
I15
aI11
aI8
aI3
aI7
aI4
aI6
aI1
aI1
aI5
aasS'jahgiebfcd'
p904
(lp905
(lp906
I16
aI8
aI4
aI3
aI3
aI3
aI7
aI4
aI5
aI9
aa(lp907
I11
aI8
aI5
aI7
aI7
aI1
aI7
aI7
aI4
aI6
aa(lp908
I15
aI7
aI8
aI2
aI4
aI4
aI1
aI4
aI3
aI4
aa(lp909
I8
aI8
aI7
aI10
aI5
aI2
aI9
aI3
aI2
aI4
aa(lp910
I18
aI9
aI4
aI9
aI5
aI7
aI7
aI5
aI1
aI2
aasS'dihjgbefca'
p911
(lp912
(lp913
I17
aI10
aI7
aI3
aI6
aI10
aI5
aI5
aI4
aI3
aa(lp914
I13
aI11
aI4
aI7
aI3
aI10
aI4
aI4
aI2
aI2
aa(lp915
I16
aI11
aI3
aI7
aI3
aI10
aI4
aI6
aI4
aI3
aa(lp916
I16
aI12
aI9
aI4
aI6
aI9
aI1
aI4
aI2
aI4
aa(lp917
I16
aI12
aI5
aI4
aI8
aI10
aI6
aI6
aI4
aI4
aasS'hgbicfajde'
p918
(lp919
(lp920
I14
aI11
aI8
aI5
aI6
aI2
aI5
aI3
aI1
aI6
aa(lp921
I15
aI10
aI3
aI9
aI6
aI5
aI1
aI7
aI4
aI6
aa(lp922
I14
aI12
aI6
aI8
aI1
aI6
aI4
aI4
aI4
aI3
aa(lp923
I15
aI11
aI8
aI8
aI5
aI2
aI6
aI5
aI4
aI2
aa(lp924
I18
aI6
aI6
aI8
aI4
aI1
aI1
aI9
aI4
aI3
aasS'fhcjdegbia'
p925
(lp926
(lp927
I15
aI10
aI6
aI3
aI4
aI9
aI2
aI2
aI3
aI4
aa(lp928
I17
aI7
aI6
aI6
aI7
aI4
aI6
aI4
aI5
aI3
aa(lp929
I19
aI4
aI3
aI10
aI1
aI1
aI4
aI5
aI9
aI4
aa(lp930
I14
aI10
aI6
aI3
aI4
aI8
aI2
aI5
aI8
aI1
aa(lp931
I18
aI9
aI6
aI3
aI5
aI6
aI4
aI4
aI3
aI3
aasS'djcbhiagfe'
p932
(lp933
(lp934
I17
aI11
aI2
aI7
aI8
aI6
aI2
aI7
aI7
aI3
aa(lp935
I18
aI6
aI7
aI2
aI5
aI8
aI6
aI5
aI1
aI2
aa(lp936
I14
aI10
aI7
aI12
aI5
aI4
aI3
aI3
aI2
aI1
aa(lp937
I14
aI11
aI8
aI6
aI5
aI7
aI3
aI7
aI4
aI6
aa(lp938
I13
aI10
aI7
aI9
aI2
aI7
aI4
aI5
aI2
aI5
aasS'bifahedgjc'
p939
(lp940
(lp941
I17
aI12
aI7
aI2
aI2
aI7
aI6
aI5
aI7
aI5
aa(lp942
I9
aI8
aI6
aI7
aI6
aI6
aI3
aI8
aI4
aI2
aa(lp943
I15
aI9
aI8
aI4
aI1
aI7
aI5
aI6
aI4
aI3
aa(lp944
I19
aI9
aI8
aI2
aI8
aI7
aI4
aI4
aI2
aI4
aa(lp945
I15
aI11
aI7
aI3
aI6
aI8
aI6
aI7
aI3
aI7
aasS'acbefjhigd'
p946
(lp947
(lp948
I13
aI10
aI10
aI9
aI5
aI5
aI4
aI3
aI5
aI4
aa(lp949
I15
aI10
aI9
aI5
aI5
aI3
aI5
aI5
aI3
aI4
aa(lp950
I10
aI13
aI10
aI4
aI6
aI7
aI3
aI3
aI4
aI2
aa(lp951
I11
aI11
aI7
aI10
aI4
aI3
aI6
aI7
aI7
aI3
aa(lp952
I10
aI8
aI6
aI7
aI2
aI5
aI5
aI2
aI9
aI3
aasS'biadjecghf'
p953
(lp954
(lp955
I13
aI13
aI4
aI4
aI6
aI6
aI3
aI4
aI5
aI3
aa(lp956
I16
aI3
aI5
aI6
aI6
aI4
aI4
aI1
aI6
aI5
aa(lp957
I16
aI11
aI2
aI2
aI8
aI3
aI5
aI8
aI9
aI5
aa(lp958
I17
aI11
aI5
aI5
aI4
aI5
aI4
aI6
aI7
aI3
aa(lp959
I17
aI15
aI4
aI5
aI3
aI3
aI2
aI7
aI5
aI2
aasS'cfgdajeihb'
p960
(lp961
(lp962
I17
aI9
aI10
aI3
aI3
aI6
aI3
aI4
aI3
aI4
aa(lp963
I16
aI9
aI12
aI3
aI4
aI4
aI5
aI6
aI6
aI5
aa(lp964
I13
aI7
aI6
aI4
aI4
aI3
aI6
aI4
aI5
aI6
aa(lp965
I8
aI13
aI9
aI4
aI3
aI7
aI6
aI7
aI1
aI5
aa(lp966
I17
aI8
aI11
aI1
aI7
aI9
aI3
aI4
aI7
aI6
aasS'ahebfgjidc'
p967
(lp968
(lp969
I14
aI7
aI12
aI8
aI8
aI7
aI2
aI3
aI1
aI4
aa(lp970
I11
aI8
aI9
aI5
aI6
aI9
aI9
aI6
aI3
aI5
aa(lp971
I14
aI8
aI8
aI3
aI9
aI10
aI5
aI6
aI4
aI2
aa(lp972
I9
aI7
aI7
aI8
aI5
aI9
aI6
aI6
aI5
aI4
aa(lp973
I11
aI8
aI13
aI8
aI7
aI6
aI7
aI7
aI4
aI4
aasS'ghicfjdeab'
p974
(lp975
(lp976
I16
aI16
aI7
aI5
aI3
aI6
aI5
aI5
aI2
aI6
aa(lp977
I18
aI7
aI8
aI3
aI6
aI5
aI2
aI4
aI5
aI8
aa(lp978
I18
aI9
aI6
aI3
aI5
aI7
aI4
aI4
aI3
aI5
aa(lp979
I14
aI13
aI12
aI6
aI4
aI6
aI4
aI2
aI2
aI2
aa(lp980
I15
aI12
aI3
aI9
aI2
aI7
aI4
aI1
aI2
aI8
aasS'fcdhbjgaei'
p981
(lp982
(lp983
I17
aI6
aI5
aI4
aI5
aI6
aI7
aI5
aI2
aI6
aa(lp984
I18
aI2
aI6
aI11
aI10
aI4
aI10
aI4
aI2
aI3
aa(lp985
I17
aI8
aI6
aI7
aI10
aI6
aI8
aI2
aI2
aI8
aa(lp986
I17
aI5
aI5
aI6
aI3
aI7
aI8
aI4
aI1
aI9
aa(lp987
I16
aI7
aI5
aI8
aI2
aI5
aI7
aI5
aI7
aI9
aasS'igcfadjhbe'
p988
(lp989
(lp990
I18
aI8
aI2
aI8
aI6
aI3
aI4
aI6
aI9
aI4
aa(lp991
I17
aI2
aI4
aI10
aI4
aI4
aI8
aI5
aI7
aI4
aa(lp992
I17
aI11
aI7
aI4
aI2
aI2
aI6
aI8
aI8
aI4
aa(lp993
I21
aI12
aI3
aI6
aI6
aI2
aI4
aI3
aI10
aI4
aa(lp994
I19
aI9
aI7
aI3
aI4
aI4
aI6
aI3
aI9
aI2
aasS'bfghidceja'
p995
(lp996
(lp997
I13
aI13
aI7
aI7
aI2
aI6
aI5
aI8
aI4
aI3
aa(lp998
I20
aI10
aI6
aI5
aI6
aI5
aI4
aI2
aI5
aI1
aa(lp999
I15
aI6
aI9
aI4
aI10
aI2
aI2
aI6
aI5
aI4
aa(lp1000
I14
aI7
aI8
aI4
aI6
aI6
aI6
aI8
aI7
aI2
aa(lp1001
I19
aI9
aI10
aI5
aI5
aI2
aI4
aI6
aI6
aI2
aasS'bghfcediaj'
p1002
(lp1003
(lp1004
I15
aI9
aI6
aI1
aI5
aI5
aI6
aI5
aI4
aI5
aa(lp1005
I11
aI11
aI6
aI2
aI5
aI6
aI3
aI11
aI2
aI4
aa(lp1006
I16
aI11
aI4
aI5
aI5
aI7
aI3
aI5
aI4
aI8
aa(lp1007
I16
aI14
aI13
aI4
aI4
aI7
aI4
aI4
aI1
aI5
aa(lp1008
I17
aI5
aI6
aI9
aI6
aI4
aI6
aI5
aI2
aI6
aasS'dfaciehgjb'
p1009
(lp1010
(lp1011
I12
aI8
aI5
aI5
aI7
aI5
aI5
aI4
aI2
aI7
aa(lp1012
I13
aI10
aI8
aI3
aI5
aI5
aI4
aI6
aI5
aI8
aa(lp1013
I15
aI9
aI4
aI3
aI4
aI8
aI6
aI3
aI1
aI10
aa(lp1014
I15
aI12
aI5
aI2
aI5
aI4
aI8
aI3
aI5
aI3
aa(lp1015
I15
aI8
aI2
aI5
aI9
aI4
aI7
aI7
aI5
aI8
aasS'bcjifehagd'
p1016
(lp1017
(lp1018
I19
aI7
aI7
aI10
aI6
aI5
aI4
aI2
aI6
aI7
aa(lp1019
I14
aI8
aI8
aI2
aI6
aI2
aI5
aI5
aI6
aI6
aa(lp1020
I17
aI11
aI8
aI4
aI8
aI4
aI5
aI4
aI13
aI2
aa(lp1021
I17
aI6
aI7
aI9
aI2
aI4
aI4
aI3
aI7
aI7
aa(lp1022
I12
aI8
aI8
aI8
aI3
aI9
aI7
aI3
aI6
aI3
aasS'eajbfidcgh'
p1023
(lp1024
(lp1025
I16
aI4
aI10
aI9
aI7
aI4
aI5
aI2
aI4
aI5
aa(lp1026
I14
aI4
aI7
aI8
aI5
aI5
aI4
aI5
aI3
aI6
aa(lp1027
I19
aI4
aI4
aI8
aI3
aI1
aI8
aI6
aI2
aI6
aa(lp1028
I18
aI2
aI8
aI9
aI8
aI5
aI3
aI1
aI7
aI9
aa(lp1029
I16
aI3
aI10
aI10
aI6
aI4
aI4
aI4
aI3
aI6
aasS'ibdcgefjha'
p1030
(lp1031
(lp1032
I15
aI14
aI4
aI5
aI5
aI8
aI7
aI6
aI2
aI2
aa(lp1033
I15
aI7
aI6
aI6
aI5
aI4
aI5
aI5
aI5
aI2
aa(lp1034
I12
aI12
aI9
aI7
aI7
aI5
aI3
aI6
aI9
aI1
aa(lp1035
I17
aI10
aI5
aI6
aI5
aI5
aI4
aI7
aI8
aI2
aa(lp1036
I16
aI11
aI6
aI4
aI4
aI4
aI7
aI8
aI4
aI3
aasS'bdgaicejhf'
p1037
(lp1038
(lp1039
I15
aI7
aI8
aI5
aI5
aI4
aI8
aI6
aI6
aI6
aa(lp1040
I17
aI11
aI5
aI4
aI5
aI3
aI8
aI2
aI5
aI4
aa(lp1041
I14
aI11
aI4
aI5
aI10
aI6
aI4
aI5
aI6
aI5
aa(lp1042
I16
aI5
aI9
aI4
aI6
aI5
aI5
aI4
aI4
aI3
aa(lp1043
I17
aI9
aI4
aI6
aI11
aI2
aI4
aI7
aI7
aI3
aasS'eaghjfbidc'
p1044
(lp1045
(lp1046
I19
aI5
aI7
aI2
aI6
aI6
aI7
aI6
aI6
aI2
aa(lp1047
I17
aI5
aI10
aI8
aI3
aI4
aI8
aI5
aI3
aI6
aa(lp1048
I20
aI4
aI5
aI7
aI5
aI3
aI4
aI5
aI5
aI4
aa(lp1049
I18
aI5
aI8
aI6
aI7
aI5
aI2
aI3
aI6
aI2
aa(lp1050
I18
aI4
aI8
aI8
aI8
aI6
aI5
aI5
aI1
aI4
aasS'hdabecifjg'
p1051
(lp1052
(lp1053
I16
aI11
aI1
aI9
aI7
aI4
aI7
aI4
aI7
aI6
aa(lp1054
I10
aI10
aI1
aI9
aI5
aI4
aI7
aI3
aI6
aI7
aa(lp1055
I14
aI9
aI6
aI9
aI5
aI3
aI4
aI5
aI7
aI4
aa(lp1056
I12
aI10
aI4
aI9
aI3
aI6
aI1
aI3
aI5
aI5
aa(lp1057
I16
aI8
aI2
aI9
aI7
aI4
aI6
aI3
aI7
aI6
aasS'adgcbehjfi'
p1058
(lp1059
(lp1060
I14
aI7
aI4
aI9
aI8
aI6
aI5
aI3
aI4
aI6
aa(lp1061
I10
aI12
aI5
aI5
aI5
aI4
aI4
aI7
aI4
aI6
aa(lp1062
I8
aI12
aI4
aI4
aI8
aI6
aI8
aI5
aI6
aI5
aa(lp1063
I12
aI12
aI4
aI6
aI2
aI4
aI8
aI8
aI3
aI3
aa(lp1064
I17
aI12
aI6
aI6
aI6
aI6
aI7
aI5
aI3
aI4
aasS'fhcgebdiaj'
p1065
(lp1066
(lp1067
I15
aI7
aI5
aI11
aI5
aI5
aI2
aI6
aI1
aI4
aa(lp1068
I16
aI9
aI4
aI6
aI7
aI7
aI5
aI5
aI2
aI6
aa(lp1069
I17
aI9
aI7
aI5
aI6
aI9
aI2
aI3
aI2
aI7
aa(lp1070
I13
aI6
aI5
aI10
aI7
aI7
aI5
aI7
aI4
aI6
aa(lp1071
I20
aI6
aI6
aI11
aI5
aI5
aI4
aI8
aI4
aI5
aasS'fgjehdcbai'
p1072
(lp1073
(lp1074
I17
aI9
aI7
aI8
aI9
aI3
aI1
aI10
aI2
aI5
aa(lp1075
I17
aI10
aI3
aI8
aI8
aI5
aI3
aI4
aI1
aI6
aa(lp1076
I15
aI6
aI6
aI9
aI4
aI5
aI2
aI8
aI2
aI3
aa(lp1077
I19
aI8
aI7
aI5
aI4
aI4
aI3
aI9
aI2
aI5
aa(lp1078
I18
aI4
aI8
aI8
aI9
aI1
aI2
aI10
aI2
aI5
aasS'jcdehfgiba'
p1079
(lp1080
(lp1081
I20
aI8
aI5
aI8
aI3
aI7
aI6
aI4
aI10
aI2
aa(lp1082
I16
aI10
aI5
aI5
aI3
aI4
aI7
aI5
aI6
aI2
aa(lp1083
I19
aI11
aI8
aI4
aI9
aI6
aI5
aI6
aI7
aI2
aa(lp1084
I17
aI2
aI9
aI8
aI7
aI5
aI7
aI4
aI7
aI1
aa(lp1085
I22
aI6
aI5
aI6
aI7
aI5
aI7
aI6
aI12
aI1
aasS'egafbjdhic'
p1086
(lp1087
(lp1088
I20
aI11
aI2
aI5
aI8
aI7
aI6
aI6
aI6
aI4
aa(lp1089
I17
aI9
aI4
aI8
aI8
aI8
aI3
aI4
aI2
aI4
aa(lp1090
I20
aI5
aI3
aI8
aI10
aI5
aI6
aI6
aI5
aI5
aa(lp1091
I19
aI9
aI4
aI8
aI4
aI6
aI2
aI8
aI2
aI2
aa(lp1092
I17
aI7
aI4
aI4
aI12
aI2
aI4
aI8
aI5
aI3
aasS'jhaifebgcd'
p1093
(lp1094
(lp1095
I26
aI4
aI4
aI9
aI5
aI6
aI6
aI8
aI3
aI1
aa(lp1096
I17
aI5
aI10
aI8
aI1
aI2
aI6
aI5
aI1
aI4
aa(lp1097
I15
aI12
aI5
aI7
aI6
aI5
aI9
aI10
aI3
aI4
aa(lp1098
I18
aI10
aI5
aI7
aI6
aI9
aI9
aI8
aI5
aI2
aa(lp1099
I23
aI8
aI7
aI8
aI5
aI2
aI2
aI5
aI4
aI3
aasS'afhdjeibcg'
p1100
(lp1101
(lp1102
I12
aI15
aI8
aI1
aI4
aI6
aI6
aI7
aI5
aI6
aa(lp1103
I14
aI14
aI8
aI7
aI6
aI5
aI4
aI8
aI4
aI5
aa(lp1104
I14
aI9
aI7
aI5
aI3
aI7
aI8
aI6
aI4
aI3
aa(lp1105
I13
aI7
aI6
aI3
aI9
aI8
aI3
aI10
aI3
aI2
aa(lp1106
I12
aI12
aI7
aI5
aI8
aI6
aI7
aI7
aI1
aI6
aasS'bdhejfacig'
p1107
(lp1108
(lp1109
I14
aI2
aI7
aI10
aI5
aI6
aI2
aI5
aI6
aI12
aa(lp1110
I19
aI7
aI7
aI5
aI6
aI2
aI2
aI1
aI1
aI3
aa(lp1111
I15
aI5
aI11
aI8
aI3
aI5
aI3
aI2
aI4
aI7
aa(lp1112
I18
aI10
aI8
aI5
aI4
aI3
aI3
aI3
aI2
aI3
aa(lp1113
I19
aI10
aI5
aI10
aI6
aI5
aI1
aI4
aI7
aI4
aasS'cbgijaehdf'
p1114
(lp1115
(lp1116
I17
aI11
aI7
aI7
aI6
aI6
aI3
aI5
aI3
aI5
aa(lp1117
I15
aI11
aI9
aI8
aI6
aI3
aI3
aI4
aI4
aI4
aa(lp1118
I16
aI11
aI8
aI8
aI7
aI3
aI1
aI3
aI5
aI5
aa(lp1119
I17
aI12
aI7
aI7
aI7
aI4
aI3
aI5
aI2
aI5
aa(lp1120
I14
aI10
aI8
aI8
aI7
aI3
aI6
aI6
aI6
aI6
aasS'jgaheidcbf'
p1121
(lp1122
(lp1123
I13
aI10
aI4
aI9
aI3
aI8
aI5
aI8
aI4
aI3
aa(lp1124
I20
aI9
aI8
aI4
aI2
aI7
aI4
aI6
aI5
aI2
aa(lp1125
I15
aI8
aI6
aI7
aI7
aI8
aI4
aI6
aI7
aI4
aa(lp1126
I15
aI12
aI4
aI4
aI4
aI8
aI4
aI4
aI7
aI6
aa(lp1127
I17
aI7
aI7
aI5
aI6
aI4
aI1
aI1
aI6
aI5
aasS'dcefhiajbg'
p1128
(lp1129
(lp1130
I13
aI9
aI8
aI4
aI5
aI4
aI2
aI3
aI1
aI6
aa(lp1131
I16
aI6
aI2
aI7
aI8
aI3
aI3
aI7
aI10
aI7
aa(lp1132
I13
aI10
aI9
aI4
aI4
aI3
aI4
aI5
aI4
aI2
aa(lp1133
I8
aI9
aI10
aI5
aI7
aI6
aI1
aI7
aI6
aI9
aa(lp1134
I13
aI11
aI6
aI4
aI9
aI5
aI2
aI3
aI5
aI7
aasS'befcaghjid'
p1135
(lp1136
(lp1137
I16
aI11
aI1
aI5
aI4
aI5
aI2
aI3
aI7
aI4
aa(lp1138
I16
aI9
aI8
aI2
aI3
aI6
aI8
aI5
aI8
aI1
aa(lp1139
I18
aI13
aI8
aI1
aI4
aI7
aI5
aI5
aI5
aI4
aa(lp1140
I17
aI12
aI7
aI3
aI2
aI7
aI7
aI4
aI2
aI3
aa(lp1141
I14
aI7
aI8
aI4
aI2
aI10
aI4
aI5
aI6
aI3
aasS'fjcagbhdei'
p1142
(lp1143
(lp1144
I17
aI6
aI7
aI5
aI3
aI6
aI5
aI4
aI6
aI6
aa(lp1145
I19
aI7
aI7
aI6
aI3
aI3
aI5
aI3
aI5
aI2
aa(lp1146
I17
aI8
aI4
aI4
aI7
aI4
aI6
aI1
aI7
aI6
aa(lp1147
I15
aI9
aI5
aI6
aI5
aI6
aI5
aI3
aI5
aI5
aa(lp1148
I14
aI13
aI4
aI2
aI7
aI4
aI2
aI7
aI6
aI7
aasS'ajehfcdibg'
p1149
(lp1150
(lp1151
I16
aI13
aI5
aI4
aI9
aI5
aI2
aI7
aI7
aI4
aa(lp1152
I12
aI10
aI7
aI3
aI5
aI4
aI3
aI5
aI5
aI7
aa(lp1153
I15
aI9
aI9
aI5
aI5
aI2
aI4
aI6
aI9
aI5
aa(lp1154
I14
aI11
aI3
aI3
aI4
aI7
aI4
aI7
aI8
aI6
aa(lp1155
I14
aI14
aI8
aI2
aI3
aI4
aI3
aI9
aI7
aI5
aasS'ghefabidjc'
p1156
(lp1157
(lp1158
I18
aI7
aI10
aI7
aI2
aI3
aI7
aI2
aI6
aI3
aa(lp1159
I17
aI15
aI10
aI2
aI4
aI8
aI7
aI5
aI7
aI4
aa(lp1160
I18
aI10
aI10
aI3
aI1
aI5
aI5
aI3
aI5
aI4
aa(lp1161
I12
aI9
aI2
aI4
aI1
aI5
aI7
aI5
aI7
aI4
aa(lp1162
I18
aI12
aI4
aI6
aI2
aI3
aI6
aI1
aI4
aI4
aasS'fcdhgibaje'
p1163
(lp1164
(lp1165
I18
aI7
aI6
aI6
aI4
aI6
aI1
aI1
aI3
aI4
aa(lp1166
I25
aI4
aI4
aI11
aI12
aI4
aI5
aI4
aI1
aI6
aa(lp1167
I15
aI4
aI7
aI6
aI4
aI3
aI7
aI3
aI6
aI1
aa(lp1168
I16
aI3
aI5
aI8
aI9
aI2
aI10
aI4
aI8
aI4
aa(lp1169
I18
aI5
aI5
aI6
aI7
aI6
aI6
aI4
aI6
aI2
aasS'cidfbahegj'
p1170
(lp1171
(lp1172
I17
aI9
aI6
aI6
aI2
aI4
aI5
aI6
aI4
aI6
aa(lp1173
I17
aI8
aI7
aI8
aI11
aI2
aI7
aI5
aI9
aI1
aa(lp1174
I18
aI14
aI8
aI3
aI8
aI3
aI4
aI3
aI7
aI2
aa(lp1175
I16
aI13
aI3
aI10
aI9
aI3
aI5
aI4
aI7
aI7
aa(lp1176
I18
aI13
aI6
aI5
aI9
aI3
aI7
aI7
aI5
aI5
aasS'agdcfihjbe'
p1177
(lp1178
(lp1179
I10
aI14
aI5
aI7
aI4
aI8
aI7
aI5
aI6
aI5
aa(lp1180
I14
aI11
aI2
aI1
aI5
aI6
aI5
aI6
aI10
aI4
aa(lp1181
I13
aI12
aI6
aI3
aI7
aI8
aI8
aI6
aI8
aI2
aa(lp1182
I14
aI10
aI5
aI3
aI10
aI5
aI6
aI6
aI6
aI5
aa(lp1183
I12
aI11
aI2
aI7
aI5
aI5
aI11
aI4
aI3
aI4
aasS'cedaifhjbg'
p1184
(lp1185
(lp1186
I17
aI8
aI6
aI5
aI5
aI4
aI5
aI2
aI11
aI6
aa(lp1187
I15
aI6
aI6
aI2
aI2
aI6
aI7
aI2
aI13
aI5
aa(lp1188
I15
aI12
aI4
aI4
aI5
aI5
aI8
aI8
aI11
aI3
aa(lp1189
I20
aI7
aI5
aI2
aI9
aI4
aI6
aI7
aI5
aI6
aa(lp1190
I10
aI13
aI7
aI2
aI9
aI6
aI6
aI3
aI9
aI6
aasS'hbigedjcaf'
p1191
(lp1192
(lp1193
I16
aI8
aI11
aI8
aI9
aI4
aI3
aI4
aI3
aI3
aa(lp1194
I13
aI13
aI7
aI6
aI8
aI4
aI6
aI3
aI2
aI1
aa(lp1195
I17
aI5
aI8
aI11
aI6
aI4
aI5
aI5
aI1
aI4
aa(lp1196
I13
aI14
aI9
aI4
aI3
aI6
aI7
aI4
aI2
aI3
aa(lp1197
I15
aI7
aI6
aI4
aI3
aI4
aI2
aI4
aI6
aI8
aasS'dhijfbaceg'
p1198
(lp1199
(lp1200
I13
aI7
aI7
aI6
aI6
aI4
aI2
aI1
aI4
aI2
aa(lp1201
I14
aI11
aI8
aI9
aI1
aI9
aI4
aI6
aI3
aI7
aa(lp1202
I18
aI12
aI4
aI4
aI5
aI3
aI2
aI7
aI4
aI5
aa(lp1203
I14
aI11
aI9
aI6
aI5
aI8
aI4
aI3
aI1
aI7
aa(lp1204
I13
aI10
aI13
aI5
aI8
aI5
aI3
aI3
aI1
aI8
aasS'gchiabdefj'
p1205
(lp1206
(lp1207
I12
aI7
aI8
aI10
aI5
aI4
aI3
aI5
aI3
aI3
aa(lp1208
I11
aI9
aI5
aI6
aI5
aI5
aI4
aI2
aI4
aI7
aa(lp1209
I11
aI11
aI11
aI8
aI3
aI5
aI5
aI5
aI3
aI3
aa(lp1210
I15
aI6
aI11
aI7
aI3
aI5
aI4
aI9
aI4
aI6
aa(lp1211
I16
aI9
aI12
aI9
aI2
aI9
aI6
aI7
aI6
aI2
aasS'eichfdgbja'
p1212
(lp1213
(lp1214
I15
aI8
aI6
aI3
aI5
aI7
aI4
aI4
aI8
aI1
aa(lp1215
I16
aI9
aI5
aI5
aI3
aI4
aI4
aI6
aI5
aI2
aa(lp1216
I16
aI10
aI6
aI9
aI8
aI3
aI7
aI9
aI4
aI3
aa(lp1217
I18
aI10
aI6
aI7
aI5
aI6
aI4
aI6
aI7
aI4
aa(lp1218
I19
aI9
aI5
aI5
aI4
aI3
aI4
aI8
aI7
aI6
aasS'jdhaeficbg'
p1219
(lp1220
(lp1221
I18
aI4
aI4
aI8
aI8
aI5
aI3
aI2
aI6
aI8
aa(lp1222
I23
aI7
aI4
aI7
aI3
aI4
aI6
aI3
aI7
aI5
aa(lp1223
I19
aI7
aI5
aI5
aI4
aI6
aI4
aI3
aI8
aI4
aa(lp1224
I17
aI7
aI4
aI4
aI6
aI9
aI4
aI3
aI12
aI4
aa(lp1225
I20
aI4
aI7
aI2
aI5
aI6
aI6
aI3
aI6
aI5
aasS'jcgahbfdei'
p1226
(lp1227
(lp1228
I16
aI6
aI6
aI6
aI7
aI8
aI4
aI4
aI4
aI8
aa(lp1229
I16
aI8
aI11
aI6
aI6
aI9
aI2
aI3
aI6
aI4
aa(lp1230
I17
aI9
aI10
aI5
aI4
aI4
aI5
aI3
aI5
aI8
aa(lp1231
I16
aI8
aI6
aI4
aI8
aI5
aI5
aI2
aI5
aI7
aa(lp1232
I15
aI6
aI5
aI5
aI6
aI8
aI4
aI5
aI4
aI5
aasS'cgfejibdha'
p1233
(lp1234
(lp1235
I14
aI9
aI4
aI10
aI6
aI8
aI9
aI2
aI5
aI2
aa(lp1236
I16
aI10
aI5
aI4
aI9
aI5
aI6
aI4
aI5
aI3
aa(lp1237
I13
aI12
aI7
aI8
aI7
aI7
aI8
aI1
aI7
aI6
aa(lp1238
I15
aI11
aI4
aI6
aI3
aI9
aI7
aI5
aI8
aI3
aa(lp1239
I12
aI9
aI6
aI8
aI8
aI1
aI7
aI5
aI4
aI3
aasS'cejabighfd'
p1240
(lp1241
(lp1242
I17
aI10
aI8
aI6
aI6
aI6
aI10
aI2
aI2
aI3
aa(lp1243
I13
aI11
aI8
aI6
aI9
aI7
aI7
aI1
aI6
aI3
aa(lp1244
I17
aI11
aI7
aI1
aI5
aI5
aI8
aI6
aI3
aI5
aa(lp1245
I10
aI12
aI8
aI5
aI11
aI10
aI3
aI3
aI5
aI6
aa(lp1246
I14
aI9
aI3
aI3
aI7
aI8
aI7
aI5
aI6
aI3
aasS'gdhfjbecai'
p1247
(lp1248
(lp1249
I14
aI3
aI7
aI6
aI5
aI10
aI6
aI3
aI3
aI4
aa(lp1250
I13
aI7
aI10
aI9
aI7
aI6
aI6
aI4
aI4
aI7
aa(lp1251
I17
aI4
aI13
aI4
aI4
aI9
aI6
aI4
aI3
aI6
aa(lp1252
I16
aI4
aI6
aI6
aI7
aI3
aI8
aI3
aI3
aI6
aa(lp1253
I14
aI3
aI12
aI11
aI5
aI9
aI7
aI3
aI3
aI3
aasS'fgacebdijh'
p1254
(lp1255
(lp1256
I18
aI7
aI3
aI1
aI2
aI9
aI9
aI6
aI8
aI4
aa(lp1257
I20
aI9
aI6
aI2
aI7
aI6
aI3
aI8
aI5
aI5
aa(lp1258
I20
aI5
aI3
aI3
aI9
aI6
aI5
aI1
aI5
aI6
aa(lp1259
I20
aI6
aI5
aI4
aI4
aI7
aI4
aI7
aI6
aI6
aa(lp1260
I15
aI6
aI6
aI6
aI3
aI8
aI4
aI7
aI9
aI4
aasS'edjfbchgia'
p1261
(lp1262
(lp1263
I16
aI6
aI5
aI8
aI10
aI5
aI5
aI5
aI3
aI2
aa(lp1264
I16
aI8
aI8
aI5
aI9
aI7
aI1
aI5
aI6
aI4
aa(lp1265
I16
aI9
aI8
aI6
aI7
aI1
aI6
aI2
aI4
aI3
aa(lp1266
I20
aI9
aI2
aI9
aI5
aI3
aI6
aI7
aI6
aI4
aa(lp1267
I14
aI6
aI7
aI8
aI9
aI3
aI6
aI4
aI6
aI3
aasS'dcafiejghb'
p1268
(lp1269
(lp1270
I16
aI9
aI4
aI10
aI10
aI4
aI8
aI6
aI6
aI7
aa(lp1271
I15
aI8
aI4
aI3
aI6
aI4
aI4
aI6
aI6
aI5
aa(lp1272
I16
aI5
aI5
aI10
aI5
aI5
aI6
aI4
aI5
aI6
aa(lp1273
I14
aI11
aI4
aI5
aI6
aI2
aI7
aI9
aI2
aI8
aa(lp1274
I14
aI8
aI3
aI3
aI6
aI7
aI8
aI4
aI5
aI8
aasS'jcigbheadf'
p1275
(lp1276
(lp1277
I13
aI8
aI7
aI9
aI8
aI8
aI4
aI1
aI3
aI3
aa(lp1278
I17
aI4
aI9
aI8
aI7
aI6
aI5
aI2
aI4
aI6
aa(lp1279
I17
aI8
aI5
aI6
aI7
aI10
aI5
aI2
aI6
aI4
aa(lp1280
I18
aI8
aI11
aI9
aI12
aI7
aI5
aI2
aI3
aI3
aa(lp1281
I17
aI11
aI8
aI8
aI6
aI6
aI2
aI2
aI3
aI2
aasS'hegfbijdca'
p1282
(lp1283
(lp1284
I15
aI13
aI9
aI4
aI5
aI4
aI3
aI3
aI6
aI6
aa(lp1285
I16
aI12
aI9
aI4
aI8
aI7
aI8
aI3
aI4
aI4
aa(lp1286
I16
aI16
aI7
aI6
aI10
aI3
aI2
aI5
aI4
aI3
aa(lp1287
I14
aI9
aI11
aI4
aI9
aI6
aI5
aI2
aI4
aI2
aa(lp1288
I17
aI8
aI8
aI8
aI6
aI6
aI5
aI4
aI6
aI5
aasS'fgcihdjeba'
p1289
(lp1290
(lp1291
I19
aI3
aI7
aI8
aI2
aI5
aI8
aI2
aI3
aI3
aa(lp1292
I15
aI8
aI5
aI4
aI3
aI4
aI5
aI4
aI8
aI2
aa(lp1293
I15
aI8
aI2
aI4
aI6
aI3
aI6
aI8
aI3
aI4
aa(lp1294
I18
aI9
aI4
aI8
aI6
aI3
aI5
aI5
aI7
aI5
aa(lp1295
I18
aI7
aI3
aI11
aI6
aI3
aI1
aI5
aI7
aI2
aasS'ahbijdgfec'
p1296
(lp1297
(lp1298
I8
aI7
aI6
aI11
aI7
aI5
aI2
aI5
aI6
aI3
aa(lp1299
I15
aI6
aI4
aI8
aI6
aI5
aI6
aI2
aI6
aI5
aa(lp1300
I13
aI7
aI12
aI5
aI6
aI6
aI9
aI7
aI1
aI5
aa(lp1301
I13
aI9
aI7
aI6
aI10
aI4
aI7
aI4
aI2
aI2
aa(lp1302
I8
aI8
aI11
aI10
aI4
aI6
aI5
aI6
aI2
aI4
aasS'dcgjehbaif'
p1303
(lp1304
(lp1305
I15
aI10
aI6
aI5
aI6
aI7
aI3
aI2
aI6
aI4
aa(lp1306
I11
aI9
aI6
aI9
aI3
aI5
aI10
aI1
aI8
aI5
aa(lp1307
I17
aI9
aI4
aI7
aI5
aI9
aI7
aI2
aI7
aI3
aa(lp1308
I14
aI9
aI3
aI7
aI8
aI9
aI11
aI1
aI5
aI6
aa(lp1309
I12
aI10
aI10
aI4
aI4
aI7
aI7
aI3
aI5
aI5
aasS'fbaegcjdhi'
p1310
(lp1311
(lp1312
I16
aI7
aI3
aI10
aI6
aI3
aI3
aI3
aI7
aI2
aa(lp1313
I15
aI10
aI6
aI5
aI4
aI1
aI7
aI6
aI3
aI1
aa(lp1314
I18
aI8
aI4
aI7
aI6
aI3
aI6
aI6
aI3
aI5
aa(lp1315
I16
aI8
aI6
aI7
aI8
aI2
aI4
aI2
aI7
aI1
aa(lp1316
I15
aI7
aI4
aI7
aI3
aI2
aI8
aI1
aI6
aI5
aasS'hegbidcjaf'
p1317
(lp1318
(lp1319
I15
aI15
aI8
aI3
aI3
aI3
aI5
aI8
aI2
aI3
aa(lp1320
I14
aI10
aI8
aI8
aI5
aI4
aI5
aI3
aI4
aI6
aa(lp1321
I16
aI11
aI11
aI7
aI8
aI4
aI5
aI8
aI4
aI1
aa(lp1322
I16
aI13
aI10
aI10
aI5
aI1
aI3
aI6
aI3
aI4
aa(lp1323
I14
aI17
aI8
aI4
aI4
aI2
aI2
aI8
aI3
aI6
aasS'hadbegjfic'
p1324
(lp1325
(lp1326
I14
aI4
aI9
aI4
aI5
aI8
aI2
aI3
aI6
aI2
aa(lp1327
I15
aI6
aI8
aI9
aI2
aI6
aI8
aI4
aI5
aI2
aa(lp1328
I12
aI4
aI14
aI10
aI8
aI5
aI5
aI5
aI2
aI3
aa(lp1329
I9
aI5
aI7
aI13
aI10
aI10
aI1
aI4
aI3
aI4
aa(lp1330
I15
aI6
aI5
aI7
aI4
aI10
aI8
aI5
aI7
aI2
aasS'aighfcdebj'
p1331
(lp1332
(lp1333
I11
aI10
aI8
aI10
aI8
aI8
aI3
aI4
aI7
aI5
aa(lp1334
I12
aI13
aI12
aI6
aI7
aI3
aI4
aI5
aI3
aI5
aa(lp1335
I11
aI13
aI10
aI7
aI7
aI2
aI5
aI6
aI7
aI4
aa(lp1336
I14
aI6
aI8
aI4
aI5
aI6
aI3
aI4
aI7
aI3
aa(lp1337
I15
aI12
aI10
aI6
aI4
aI4
aI4
aI3
aI7
aI5
aasS'jbfecahidg'
p1338
(lp1339
(lp1340
I17
aI11
aI8
aI7
aI3
aI3
aI2
aI8
aI4
aI3
aa(lp1341
I16
aI11
aI8
aI5
aI4
aI4
aI3
aI6
aI3
aI5
aa(lp1342
I18
aI11
aI8
aI7
aI4
aI3
aI7
aI4
aI6
aI3
aa(lp1343
I15
aI7
aI8
aI10
aI4
aI4
aI6
aI3
aI6
aI6
aa(lp1344
I17
aI10
aI11
aI3
aI2
aI3
aI5
aI9
aI2
aI3
aasS'eagcfdbijh'
p1345
(lp1346
(lp1347
I12
aI5
aI9
aI6
aI4
aI4
aI8
aI4
aI4
aI7
aa(lp1348
I15
aI4
aI9
aI4
aI3
aI3
aI7
aI2
aI5
aI6
aa(lp1349
I17
aI2
aI10
aI3
aI6
aI3
aI6
aI7
aI5
aI5
aa(lp1350
I14
aI4
aI11
aI5
aI7
aI3
aI7
aI7
aI3
aI2
aa(lp1351
I16
aI4
aI10
aI6
aI4
aI2
aI9
aI7
aI4
aI5
aasS'acjghdfbie'
p1352
(lp1353
(lp1354
I10
aI13
aI11
aI4
aI6
aI2
aI6
aI5
aI2
aI4
aa(lp1355
I12
aI7
aI5
aI9
aI3
aI2
aI1
aI7
aI9
aI3
aa(lp1356
I14
aI12
aI8
aI7
aI7
aI5
aI6
aI6
aI8
aI4
aa(lp1357
I13
aI10
aI8
aI6
aI6
aI5
aI5
aI8
aI3
aI8
aa(lp1358
I14
aI4
aI7
aI8
aI3
aI4
aI5
aI5
aI6
aI6
aasS'eajfgcibdh'
p1359
(lp1360
(lp1361
I18
aI4
aI7
aI6
aI8
aI5
aI9
aI6
aI4
aI4
aa(lp1362
I15
aI3
aI10
aI10
aI8
aI2
aI2
aI1
aI4
aI6
aa(lp1363
I15
aI2
aI10
aI5
aI8
aI4
aI8
aI8
aI5
aI8
aa(lp1364
I14
aI5
aI6
aI5
aI9
aI3
aI7
aI7
aI2
aI3
aa(lp1365
I15
aI3
aI7
aI7
aI7
aI1
aI5
aI9
aI3
aI3
aasS'acbhedgjif'
p1366
(lp1367
(lp1368
I12
aI10
aI9
aI1
aI7
aI4
aI5
aI6
aI5
aI4
aa(lp1369
I10
aI7
aI9
aI6
aI7
aI4
aI4
aI4
aI6
aI7
aa(lp1370
I10
aI11
aI10
aI3
aI4
aI6
aI8
aI5
aI5
aI6
aa(lp1371
I11
aI10
aI7
aI4
aI5
aI6
aI6
aI8
aI7
aI2
aa(lp1372
I14
aI5
aI5
aI4
aI6
aI6
aI4
aI5
aI6
aI5
aasS'jcidefbhga'
p1373
(lp1374
(lp1375
I15
aI3
aI11
aI6
aI9
aI2
aI9
aI4
aI5
aI2
aa(lp1376
I13
aI7
aI7
aI4
aI7
aI5
aI10
aI7
aI6
aI6
aa(lp1377
I17
aI8
aI9
aI5
aI3
aI8
aI6
aI4
aI6
aI3
aa(lp1378
I18
aI8
aI7
aI5
aI10
aI5
aI11
aI2
aI7
aI3
aa(lp1379
I16
aI8
aI9
aI7
aI9
aI5
aI10
aI6
aI10
aI5
aasS'bahgjeidfc'
p1380
(lp1381
(lp1382
I17
aI6
aI5
aI8
aI7
aI2
aI6
aI7
aI5
aI3
aa(lp1383
I17
aI4
aI7
aI6
aI4
aI4
aI1
aI3
aI4
aI2
aa(lp1384
I19
aI9
aI8
aI8
aI10
aI8
aI4
aI1
aI5
aI2
aa(lp1385
I14
aI3
aI9
aI5
aI4
aI5
aI4
aI3
aI5
aI4
aa(lp1386
I18
aI7
aI5
aI7
aI7
aI3
aI6
aI4
aI2
aI3
aasS'eihfjabdcg'
p1387
(lp1388
(lp1389
I15
aI12
aI8
aI7
aI4
aI2
aI3
aI7
aI3
aI5
aa(lp1390
I16
aI9
aI5
aI8
aI2
aI3
aI9
aI2
aI4
aI8
aa(lp1391
I13
aI2
aI6
aI6
aI9
aI4
aI10
aI5
aI4
aI4
aa(lp1392
I21
aI9
aI5
aI5
aI7
aI2
aI4
aI5
aI3
aI6
aa(lp1393
I16
aI10
aI6
aI10
aI4
aI3
aI1
aI4
aI4
aI5
aasS'cjbeidhgaf'
p1394
(lp1395
(lp1396
I14
aI11
aI6
aI6
aI4
aI4
aI5
aI6
aI3
aI3
aa(lp1397
I16
aI9
aI4
aI9
aI8
aI4
aI7
aI5
aI1
aI4
aa(lp1398
I15
aI9
aI7
aI4
aI4
aI5
aI6
aI4
aI4
aI4
aa(lp1399
I17
aI8
aI9
aI2
aI4
aI3
aI7
aI8
aI3
aI6
aa(lp1400
I14
aI12
aI9
aI8
aI9
aI2
aI6
aI7
aI3
aI2
aas.