ccopy_reg
_reconstructor
p0
(c__main__
KnapsackData
p1
c__builtin__
object
p2
Ntp3
Rp4
(dp5
S'knapsacks'
p6
I1
sS'name'
p7
S'knapsack_500'
p8
sS'items'
p9
I500
sS'capacities'
p10
(lp11
I2000
asS'values'
p12
(lp13
I44
aI115
aI112
aI18
aI62
aI7
aI139
aI44
aI22
aI128
aI30
aI14
aI122
aI71
aI119
aI21
aI107
aI47
aI131
aI103
aI35
aI58
aI106
aI113
aI99
aI124
aI8
aI82
aI123
aI60
aI50
aI144
aI33
aI67
aI66
aI41
aI146
aI9
aI103
aI22
aI30
aI12
aI14
aI8
aI119
aI77
aI112
aI120
aI80
aI128
aI126
aI6
aI103
aI16
aI136
aI79
aI20
aI68
aI42
aI63
aI18
aI31
aI14
aI99
aI125
aI122
aI99
aI139
aI89
aI100
aI38
aI116
aI43
aI143
aI62
aI144
aI95
aI26
aI81
aI12
aI103
aI103
aI17
aI27
aI72
aI132
aI136
aI139
aI123
aI120
aI7
aI115
aI54
aI137
aI124
aI107
aI141
aI75
aI136
aI85
aI68
aI43
aI37
aI53
aI10
aI141
aI127
aI35
aI21
aI133
aI83
aI34
aI111
aI8
aI15
aI79
aI27
aI100
aI62
aI79
aI54
aI65
aI53
aI93
aI29
aI57
aI85
aI44
aI106
aI143
aI29
aI122
aI82
aI120
aI56
aI58
aI135
aI12
aI121
aI135
aI28
aI121
aI54
aI141
aI82
aI27
aI54
aI108
aI105
aI120
aI13
aI23
aI17
aI60
aI87
aI80
aI52
aI46
aI78
aI83
aI132
aI127
aI54
aI111
aI102
aI61
aI91
aI143
aI56
aI15
aI128
aI55
aI12
aI6
aI28
aI12
aI86
aI62
aI49
aI132
aI15
aI89
aI108
aI97
aI32
aI138
aI135
aI83
aI67
aI21
aI106
aI148
aI41
aI25
aI44
aI37
aI105
aI19
aI144
aI81
aI33
aI100
aI60
aI136
aI86
aI10
aI20
aI25
aI14
aI9
aI144
aI117
aI143
aI13
aI42
aI8
aI122
aI24
aI56
aI33
aI138
aI133
aI72
aI41
aI68
aI9
aI119
aI78
aI64
aI53
aI140
aI124
aI81
aI55
aI17
aI92
aI90
aI111
aI26
aI48
aI50
aI21
aI57
aI90
aI78
aI87
aI107
aI83
aI127
aI120
aI124
aI68
aI132
aI106
aI14
aI107
aI77
aI10
aI5
aI79
aI22
aI81
aI77
aI127
aI88
aI58
aI72
aI52
aI114
aI36
aI89
aI16
aI135
aI108
aI69
aI78
aI92
aI80
aI86
aI129
aI97
aI140
aI87
aI87
aI53
aI69
aI95
aI96
aI66
aI149
aI127
aI103
aI76
aI23
aI101
aI111
aI86
aI148
aI131
aI143
aI25
aI119
aI18
aI119
aI53
aI129
aI54
aI11
aI78
aI53
aI109
aI66
aI36
aI53
aI63
aI80
aI19
aI93
aI29
aI65
aI132
aI38
aI115
aI91
aI31
aI52
aI118
aI150
aI144
aI41
aI128
aI124
aI102
aI141
aI96
aI109
aI129
aI141
aI117
aI7
aI85
aI127
aI31
aI80
aI117
aI50
aI17
aI89
aI137
aI81
aI150
aI138
aI26
aI113
aI24
aI82
aI85
aI131
aI125
aI123
aI102
aI40
aI41
aI71
aI56
aI63
aI23
aI83
aI57
aI144
aI58
aI81
aI142
aI89
aI11
aI100
aI139
aI14
aI21
aI137
aI118
aI82
aI9
aI59
aI72
aI142
aI117
aI110
aI71
aI61
aI96
aI34
aI130
aI122
aI108
aI128
aI87
aI141
aI24
aI33
aI69
aI82
aI52
aI129
aI79
aI141
aI121
aI37
aI63
aI30
aI44
aI91
aI71
aI92
aI49
aI122
aI61
aI142
aI39
aI70
aI68
aI55
aI17
aI83
aI55
aI105
aI125
aI107
aI10
aI115
aI143
aI111
aI28
aI35
aI25
aI37
aI81
aI132
aI17
aI131
aI9
aI43
aI116
aI99
aI56
aI10
aI147
aI104
aI64
aI51
aI128
aI94
aI19
aI111
aI18
aI113
aI143
aI102
aI117
aI62
aI52
aI17
aI134
aI69
aI103
aI18
aI46
aI67
aI73
aI110
aI84
aI105
aI72
aI94
aI143
aI106
aI37
aI33
aI68
aI115
aI98
aI42
aI118
aI5
aI109
aI34
aI94
aI141
aI115
aI128
aI144
aI111
aI120
aI111
aI41
aI131
aI25
aI47
aI32
aI52
asS'constraints'
p14
(lp15
(lp16
I29
aI27
aI36
aI51
aI13
aI18
aI90
aI63
aI85
aI80
aI99
aI67
aI58
aI84
aI69
aI34
aI62
aI45
aI53
aI25
aI79
aI84
aI81
aI46
aI65
aI99
aI100
aI44
aI69
aI77
aI54
aI32
aI67
aI59
aI40
aI34
aI40
aI77
aI17
aI65
aI53
aI61
aI66
aI42
aI17
aI42
aI66
aI31
aI46
aI96
aI84
aI43
aI71
aI21
aI30
aI45
aI75
aI91
aI47
aI32
aI22
aI58
aI43
aI79
aI50
aI93
aI41
aI14
aI32
aI96
aI39
aI54
aI82
aI27
aI86
aI56
aI56
aI29
aI16
aI41
aI73
aI97
aI52
aI27
aI80
aI92
aI82
aI25
aI95
aI58
aI12
aI36
aI55
aI25
aI71
aI98
aI16
aI92
aI47
aI33
aI47
aI24
aI42
aI20
aI44
aI46
aI35
aI45
aI76
aI76
aI57
aI24
aI53
aI37
aI40
aI37
aI77
aI19
aI96
aI28
aI41
aI56
aI10
aI62
aI29
aI93
aI33
aI82
aI89
aI87
aI10
aI26
aI77
aI61
aI31
aI94
aI28
aI20
aI64
aI94
aI13
aI27
aI79
aI47
aI86
aI23
aI77
aI60
aI47
aI61
aI50
aI53
aI14
aI65
aI26
aI58
aI18
aI45
aI75
aI69
aI54
aI42
aI23
aI81
aI75
aI55
aI85
aI19
aI78
aI67
aI10
aI98
aI69
aI59
aI55
aI84
aI85
aI74
aI40
aI13
aI47
aI65
aI35
aI17
aI56
aI13
aI89
aI97
aI57
aI33
aI31
aI35
aI92
aI58
aI17
aI31
aI44
aI44
aI70
aI37
aI26
aI96
aI89
aI23
aI25
aI50
aI21
aI30
aI21
aI35
aI54
aI18
aI19
aI27
aI59
aI59
aI72
aI77
aI38
aI16
aI85
aI55
aI23
aI44
aI21
aI29
aI97
aI59
aI60
aI36
aI83
aI100
aI36
aI96
aI14
aI68
aI84
aI87
aI83
aI24
aI24
aI63
aI55
aI55
aI28
aI61
aI12
aI48
aI96
aI72
aI16
aI51
aI37
aI26
aI47
aI64
aI10
aI37
aI24
aI76
aI12
aI30
aI71
aI81
aI89
aI92
aI76
aI19
aI65
aI56
aI31
aI12
aI55
aI71
aI37
aI74
aI25
aI51
aI73
aI81
aI54
aI76
aI46
aI37
aI20
aI93
aI20
aI26
aI60
aI20
aI16
aI99
aI44
aI88
aI28
aI64
aI64
aI16
aI99
aI24
aI92
aI40
aI18
aI43
aI42
aI98
aI72
aI48
aI17
aI77
aI37
aI43
aI24
aI54
aI10
aI87
aI77
aI63
aI78
aI54
aI45
aI65
aI13
aI97
aI17
aI43
aI14
aI84
aI47
aI25
aI31
aI68
aI52
aI23
aI96
aI70
aI31
aI81
aI93
aI71
aI29
aI28
aI14
aI18
aI60
aI37
aI65
aI48
aI76
aI56
aI77
aI49
aI35
aI24
aI23
aI41
aI32
aI68
aI86
aI64
aI65
aI10
aI22
aI56
aI34
aI40
aI89
aI81
aI25
aI16
aI47
aI91
aI10
aI25
aI81
aI74
aI23
aI38
aI17
aI81
aI56
aI76
aI68
aI59
aI38
aI58
aI58
aI54
aI28
aI16
aI38
aI61
aI10
aI71
aI69
aI38
aI89
aI76
aI98
aI75
aI38
aI64
aI53
aI33
aI79
aI74
aI27
aI63
aI16
aI37
aI53
aI34
aI22
aI34
aI78
aI91
aI66
aI14
aI100
aI18
aI80
aI43
aI19
aI42
aI55
aI90
aI37
aI19
aI17
aI22
aI95
aI87
aI39
aI26
aI23
aI60
aI63
aI13
aI15
aI47
aI66
aI53
aI24
aI17
aI75
aI66
aI81
aI20
aI54
aI60
aI72
aI68
aI53
aI49
aI67
aI91
aI55
aI39
aI95
aI31
aI41
aI35
aI10
aI95
aI99
aI46
aI53
aI59
aI25
aI55
aI41
aI66
aI35
aI37
aI58
aI66
aI30
aI17
aI72
aI17
aI12
aI54
aI26
aI29
aI77
aI100
aI81
aI76
aI67
aI78
aI47
aI46
aI54
aI97
aI81
aI54
aI19
aI100
aI51
aI84
aasb.